
mantarray-firmware-channel.elf:     file format elf32-littlearm

Sections:
Idx Name          Size      VMA       LMA       File off  Algn
  0 .isr_vector   000000c0  08000000  08000000  00010000  2**0
                  CONTENTS, ALLOC, LOAD, READONLY, DATA
  1 .text         0000317c  080000c0  080000c0  000100c0  2**2
                  CONTENTS, ALLOC, LOAD, READONLY, CODE
  2 .rodata       00000198  0800323c  0800323c  0001323c  2**2
                  CONTENTS, ALLOC, LOAD, READONLY, DATA
  3 .ARM.extab    00000000  080033d4  080033d4  00020070  2**0
                  CONTENTS
  4 .ARM          00000008  080033d4  080033d4  000133d4  2**2
                  CONTENTS, ALLOC, LOAD, READONLY, DATA
  5 .preinit_array 00000000  080033dc  080033dc  00020070  2**0
                  CONTENTS, ALLOC, LOAD, DATA
  6 .init_array   00000004  080033dc  080033dc  000133dc  2**2
                  CONTENTS, ALLOC, LOAD, DATA
  7 .fini_array   00000004  080033e0  080033e0  000133e0  2**2
                  CONTENTS, ALLOC, LOAD, DATA
  8 .data         00000070  20000000  080033e4  00020000  2**2
                  CONTENTS, ALLOC, LOAD, DATA
  9 .bss          0000020c  20000070  08003454  00020070  2**2
                  ALLOC
 10 ._user_heap_stack 00000604  2000027c  08003454  0002027c  2**0
                  ALLOC
 11 .ARM.attributes 00000028  00000000  00000000  00020070  2**0
                  CONTENTS, READONLY
 12 .debug_info   000202fe  00000000  00000000  00020098  2**0
                  CONTENTS, READONLY, DEBUGGING, OCTETS
 13 .debug_abbrev 00003d95  00000000  00000000  00040396  2**0
                  CONTENTS, READONLY, DEBUGGING, OCTETS
 14 .debug_aranges 00000ba8  00000000  00000000  00044130  2**3
                  CONTENTS, READONLY, DEBUGGING, OCTETS
 15 .debug_ranges 00002550  00000000  00000000  00044cd8  2**3
                  CONTENTS, READONLY, DEBUGGING, OCTETS
 16 .debug_macro  00016a9c  00000000  00000000  00047228  2**0
                  CONTENTS, READONLY, DEBUGGING, OCTETS
 17 .debug_line   0001e00a  00000000  00000000  0005dcc4  2**0
                  CONTENTS, READONLY, DEBUGGING, OCTETS
 18 .debug_str    0007cdd7  00000000  00000000  0007bcce  2**0
                  CONTENTS, READONLY, DEBUGGING, OCTETS
 19 .comment      00000053  00000000  00000000  000f8aa5  2**0
                  CONTENTS, READONLY
 20 .debug_frame  0000262c  00000000  00000000  000f8af8  2**2
                  CONTENTS, READONLY, DEBUGGING, OCTETS
 21 .debug_loc    00014158  00000000  00000000  000fb124  2**0
                  CONTENTS, READONLY, DEBUGGING, OCTETS

Disassembly of section .text:

080000c0 <__do_global_dtors_aux>:
 80000c0:	b510      	push	{r4, lr}
 80000c2:	4c06      	ldr	r4, [pc, #24]	; (80000dc <__do_global_dtors_aux+0x1c>)
 80000c4:	7823      	ldrb	r3, [r4, #0]
 80000c6:	2b00      	cmp	r3, #0
 80000c8:	d107      	bne.n	80000da <__do_global_dtors_aux+0x1a>
 80000ca:	4b05      	ldr	r3, [pc, #20]	; (80000e0 <__do_global_dtors_aux+0x20>)
 80000cc:	2b00      	cmp	r3, #0
 80000ce:	d002      	beq.n	80000d6 <__do_global_dtors_aux+0x16>
 80000d0:	4804      	ldr	r0, [pc, #16]	; (80000e4 <__do_global_dtors_aux+0x24>)
 80000d2:	e000      	b.n	80000d6 <__do_global_dtors_aux+0x16>
 80000d4:	bf00      	nop
 80000d6:	2301      	movs	r3, #1
 80000d8:	7023      	strb	r3, [r4, #0]
 80000da:	bd10      	pop	{r4, pc}
 80000dc:	20000070 	.word	0x20000070
 80000e0:	00000000 	.word	0x00000000
 80000e4:	08003224 	.word	0x08003224

080000e8 <frame_dummy>:
 80000e8:	4b04      	ldr	r3, [pc, #16]	; (80000fc <frame_dummy+0x14>)
 80000ea:	b510      	push	{r4, lr}
 80000ec:	2b00      	cmp	r3, #0
 80000ee:	d003      	beq.n	80000f8 <frame_dummy+0x10>
 80000f0:	4903      	ldr	r1, [pc, #12]	; (8000100 <frame_dummy+0x18>)
 80000f2:	4804      	ldr	r0, [pc, #16]	; (8000104 <frame_dummy+0x1c>)
 80000f4:	e000      	b.n	80000f8 <frame_dummy+0x10>
 80000f6:	bf00      	nop
 80000f8:	bd10      	pop	{r4, pc}
 80000fa:	46c0      	nop			; (mov r8, r8)
 80000fc:	00000000 	.word	0x00000000
 8000100:	20000074 	.word	0x20000074
 8000104:	08003224 	.word	0x08003224

08000108 <__udivsi3>:
 8000108:	2200      	movs	r2, #0
 800010a:	0843      	lsrs	r3, r0, #1
 800010c:	428b      	cmp	r3, r1
 800010e:	d374      	bcc.n	80001fa <__udivsi3+0xf2>
 8000110:	0903      	lsrs	r3, r0, #4
 8000112:	428b      	cmp	r3, r1
 8000114:	d35f      	bcc.n	80001d6 <__udivsi3+0xce>
 8000116:	0a03      	lsrs	r3, r0, #8
 8000118:	428b      	cmp	r3, r1
 800011a:	d344      	bcc.n	80001a6 <__udivsi3+0x9e>
 800011c:	0b03      	lsrs	r3, r0, #12
 800011e:	428b      	cmp	r3, r1
 8000120:	d328      	bcc.n	8000174 <__udivsi3+0x6c>
 8000122:	0c03      	lsrs	r3, r0, #16
 8000124:	428b      	cmp	r3, r1
 8000126:	d30d      	bcc.n	8000144 <__udivsi3+0x3c>
 8000128:	22ff      	movs	r2, #255	; 0xff
 800012a:	0209      	lsls	r1, r1, #8
 800012c:	ba12      	rev	r2, r2
 800012e:	0c03      	lsrs	r3, r0, #16
 8000130:	428b      	cmp	r3, r1
 8000132:	d302      	bcc.n	800013a <__udivsi3+0x32>
 8000134:	1212      	asrs	r2, r2, #8
 8000136:	0209      	lsls	r1, r1, #8
 8000138:	d065      	beq.n	8000206 <__udivsi3+0xfe>
 800013a:	0b03      	lsrs	r3, r0, #12
 800013c:	428b      	cmp	r3, r1
 800013e:	d319      	bcc.n	8000174 <__udivsi3+0x6c>
 8000140:	e000      	b.n	8000144 <__udivsi3+0x3c>
 8000142:	0a09      	lsrs	r1, r1, #8
 8000144:	0bc3      	lsrs	r3, r0, #15
 8000146:	428b      	cmp	r3, r1
 8000148:	d301      	bcc.n	800014e <__udivsi3+0x46>
 800014a:	03cb      	lsls	r3, r1, #15
 800014c:	1ac0      	subs	r0, r0, r3
 800014e:	4152      	adcs	r2, r2
 8000150:	0b83      	lsrs	r3, r0, #14
 8000152:	428b      	cmp	r3, r1
 8000154:	d301      	bcc.n	800015a <__udivsi3+0x52>
 8000156:	038b      	lsls	r3, r1, #14
 8000158:	1ac0      	subs	r0, r0, r3
 800015a:	4152      	adcs	r2, r2
 800015c:	0b43      	lsrs	r3, r0, #13
 800015e:	428b      	cmp	r3, r1
 8000160:	d301      	bcc.n	8000166 <__udivsi3+0x5e>
 8000162:	034b      	lsls	r3, r1, #13
 8000164:	1ac0      	subs	r0, r0, r3
 8000166:	4152      	adcs	r2, r2
 8000168:	0b03      	lsrs	r3, r0, #12
 800016a:	428b      	cmp	r3, r1
 800016c:	d301      	bcc.n	8000172 <__udivsi3+0x6a>
 800016e:	030b      	lsls	r3, r1, #12
 8000170:	1ac0      	subs	r0, r0, r3
 8000172:	4152      	adcs	r2, r2
 8000174:	0ac3      	lsrs	r3, r0, #11
 8000176:	428b      	cmp	r3, r1
 8000178:	d301      	bcc.n	800017e <__udivsi3+0x76>
 800017a:	02cb      	lsls	r3, r1, #11
 800017c:	1ac0      	subs	r0, r0, r3
 800017e:	4152      	adcs	r2, r2
 8000180:	0a83      	lsrs	r3, r0, #10
 8000182:	428b      	cmp	r3, r1
 8000184:	d301      	bcc.n	800018a <__udivsi3+0x82>
 8000186:	028b      	lsls	r3, r1, #10
 8000188:	1ac0      	subs	r0, r0, r3
 800018a:	4152      	adcs	r2, r2
 800018c:	0a43      	lsrs	r3, r0, #9
 800018e:	428b      	cmp	r3, r1
 8000190:	d301      	bcc.n	8000196 <__udivsi3+0x8e>
 8000192:	024b      	lsls	r3, r1, #9
 8000194:	1ac0      	subs	r0, r0, r3
 8000196:	4152      	adcs	r2, r2
 8000198:	0a03      	lsrs	r3, r0, #8
 800019a:	428b      	cmp	r3, r1
 800019c:	d301      	bcc.n	80001a2 <__udivsi3+0x9a>
 800019e:	020b      	lsls	r3, r1, #8
 80001a0:	1ac0      	subs	r0, r0, r3
 80001a2:	4152      	adcs	r2, r2
 80001a4:	d2cd      	bcs.n	8000142 <__udivsi3+0x3a>
 80001a6:	09c3      	lsrs	r3, r0, #7
 80001a8:	428b      	cmp	r3, r1
 80001aa:	d301      	bcc.n	80001b0 <__udivsi3+0xa8>
 80001ac:	01cb      	lsls	r3, r1, #7
 80001ae:	1ac0      	subs	r0, r0, r3
 80001b0:	4152      	adcs	r2, r2
 80001b2:	0983      	lsrs	r3, r0, #6
 80001b4:	428b      	cmp	r3, r1
 80001b6:	d301      	bcc.n	80001bc <__udivsi3+0xb4>
 80001b8:	018b      	lsls	r3, r1, #6
 80001ba:	1ac0      	subs	r0, r0, r3
 80001bc:	4152      	adcs	r2, r2
 80001be:	0943      	lsrs	r3, r0, #5
 80001c0:	428b      	cmp	r3, r1
 80001c2:	d301      	bcc.n	80001c8 <__udivsi3+0xc0>
 80001c4:	014b      	lsls	r3, r1, #5
 80001c6:	1ac0      	subs	r0, r0, r3
 80001c8:	4152      	adcs	r2, r2
 80001ca:	0903      	lsrs	r3, r0, #4
 80001cc:	428b      	cmp	r3, r1
 80001ce:	d301      	bcc.n	80001d4 <__udivsi3+0xcc>
 80001d0:	010b      	lsls	r3, r1, #4
 80001d2:	1ac0      	subs	r0, r0, r3
 80001d4:	4152      	adcs	r2, r2
 80001d6:	08c3      	lsrs	r3, r0, #3
 80001d8:	428b      	cmp	r3, r1
 80001da:	d301      	bcc.n	80001e0 <__udivsi3+0xd8>
 80001dc:	00cb      	lsls	r3, r1, #3
 80001de:	1ac0      	subs	r0, r0, r3
 80001e0:	4152      	adcs	r2, r2
 80001e2:	0883      	lsrs	r3, r0, #2
 80001e4:	428b      	cmp	r3, r1
 80001e6:	d301      	bcc.n	80001ec <__udivsi3+0xe4>
 80001e8:	008b      	lsls	r3, r1, #2
 80001ea:	1ac0      	subs	r0, r0, r3
 80001ec:	4152      	adcs	r2, r2
 80001ee:	0843      	lsrs	r3, r0, #1
 80001f0:	428b      	cmp	r3, r1
 80001f2:	d301      	bcc.n	80001f8 <__udivsi3+0xf0>
 80001f4:	004b      	lsls	r3, r1, #1
 80001f6:	1ac0      	subs	r0, r0, r3
 80001f8:	4152      	adcs	r2, r2
 80001fa:	1a41      	subs	r1, r0, r1
 80001fc:	d200      	bcs.n	8000200 <__udivsi3+0xf8>
 80001fe:	4601      	mov	r1, r0
 8000200:	4152      	adcs	r2, r2
 8000202:	4610      	mov	r0, r2
 8000204:	4770      	bx	lr
 8000206:	e7ff      	b.n	8000208 <__udivsi3+0x100>
 8000208:	b501      	push	{r0, lr}
 800020a:	2000      	movs	r0, #0
 800020c:	f000 f806 	bl	800021c <__aeabi_idiv0>
 8000210:	bd02      	pop	{r1, pc}
 8000212:	46c0      	nop			; (mov r8, r8)

08000214 <__aeabi_uidivmod>:
 8000214:	2900      	cmp	r1, #0
 8000216:	d0f7      	beq.n	8000208 <__udivsi3+0x100>
 8000218:	e776      	b.n	8000108 <__udivsi3>
 800021a:	4770      	bx	lr

0800021c <__aeabi_idiv0>:
 800021c:	4770      	bx	lr
 800021e:	46c0      	nop			; (mov r8, r8)

08000220 <__aeabi_uldivmod>:
 8000220:	2b00      	cmp	r3, #0
 8000222:	d111      	bne.n	8000248 <__aeabi_uldivmod+0x28>
 8000224:	2a00      	cmp	r2, #0
 8000226:	d10f      	bne.n	8000248 <__aeabi_uldivmod+0x28>
 8000228:	2900      	cmp	r1, #0
 800022a:	d100      	bne.n	800022e <__aeabi_uldivmod+0xe>
 800022c:	2800      	cmp	r0, #0
 800022e:	d002      	beq.n	8000236 <__aeabi_uldivmod+0x16>
 8000230:	2100      	movs	r1, #0
 8000232:	43c9      	mvns	r1, r1
 8000234:	1c08      	adds	r0, r1, #0
 8000236:	b407      	push	{r0, r1, r2}
 8000238:	4802      	ldr	r0, [pc, #8]	; (8000244 <__aeabi_uldivmod+0x24>)
 800023a:	a102      	add	r1, pc, #8	; (adr r1, 8000244 <__aeabi_uldivmod+0x24>)
 800023c:	1840      	adds	r0, r0, r1
 800023e:	9002      	str	r0, [sp, #8]
 8000240:	bd03      	pop	{r0, r1, pc}
 8000242:	46c0      	nop			; (mov r8, r8)
 8000244:	ffffffd9 	.word	0xffffffd9
 8000248:	b403      	push	{r0, r1}
 800024a:	4668      	mov	r0, sp
 800024c:	b501      	push	{r0, lr}
 800024e:	9802      	ldr	r0, [sp, #8]
 8000250:	f000 f82e 	bl	80002b0 <__udivmoddi4>
 8000254:	9b01      	ldr	r3, [sp, #4]
 8000256:	469e      	mov	lr, r3
 8000258:	b002      	add	sp, #8
 800025a:	bc0c      	pop	{r2, r3}
 800025c:	4770      	bx	lr
 800025e:	46c0      	nop			; (mov r8, r8)

08000260 <__aeabi_lmul>:
 8000260:	b5f0      	push	{r4, r5, r6, r7, lr}
 8000262:	0415      	lsls	r5, r2, #16
 8000264:	0c2d      	lsrs	r5, r5, #16
 8000266:	000f      	movs	r7, r1
 8000268:	0001      	movs	r1, r0
 800026a:	002e      	movs	r6, r5
 800026c:	46c6      	mov	lr, r8
 800026e:	4684      	mov	ip, r0
 8000270:	0400      	lsls	r0, r0, #16
 8000272:	0c14      	lsrs	r4, r2, #16
 8000274:	0c00      	lsrs	r0, r0, #16
 8000276:	0c09      	lsrs	r1, r1, #16
 8000278:	4346      	muls	r6, r0
 800027a:	434d      	muls	r5, r1
 800027c:	4360      	muls	r0, r4
 800027e:	4361      	muls	r1, r4
 8000280:	1940      	adds	r0, r0, r5
 8000282:	0c34      	lsrs	r4, r6, #16
 8000284:	1824      	adds	r4, r4, r0
 8000286:	b500      	push	{lr}
 8000288:	42a5      	cmp	r5, r4
 800028a:	d903      	bls.n	8000294 <__aeabi_lmul+0x34>
 800028c:	2080      	movs	r0, #128	; 0x80
 800028e:	0240      	lsls	r0, r0, #9
 8000290:	4680      	mov	r8, r0
 8000292:	4441      	add	r1, r8
 8000294:	0c25      	lsrs	r5, r4, #16
 8000296:	186d      	adds	r5, r5, r1
 8000298:	4661      	mov	r1, ip
 800029a:	4359      	muls	r1, r3
 800029c:	437a      	muls	r2, r7
 800029e:	0430      	lsls	r0, r6, #16
 80002a0:	1949      	adds	r1, r1, r5
 80002a2:	0424      	lsls	r4, r4, #16
 80002a4:	0c00      	lsrs	r0, r0, #16
 80002a6:	1820      	adds	r0, r4, r0
 80002a8:	1889      	adds	r1, r1, r2
 80002aa:	bc80      	pop	{r7}
 80002ac:	46b8      	mov	r8, r7
 80002ae:	bdf0      	pop	{r4, r5, r6, r7, pc}

080002b0 <__udivmoddi4>:
 80002b0:	b5f0      	push	{r4, r5, r6, r7, lr}
 80002b2:	4657      	mov	r7, sl
 80002b4:	464e      	mov	r6, r9
 80002b6:	4645      	mov	r5, r8
 80002b8:	46de      	mov	lr, fp
 80002ba:	b5e0      	push	{r5, r6, r7, lr}
 80002bc:	0004      	movs	r4, r0
 80002be:	000d      	movs	r5, r1
 80002c0:	4692      	mov	sl, r2
 80002c2:	4699      	mov	r9, r3
 80002c4:	b083      	sub	sp, #12
 80002c6:	428b      	cmp	r3, r1
 80002c8:	d830      	bhi.n	800032c <__udivmoddi4+0x7c>
 80002ca:	d02d      	beq.n	8000328 <__udivmoddi4+0x78>
 80002cc:	4649      	mov	r1, r9
 80002ce:	4650      	mov	r0, sl
 80002d0:	f000 f8ba 	bl	8000448 <__clzdi2>
 80002d4:	0029      	movs	r1, r5
 80002d6:	0006      	movs	r6, r0
 80002d8:	0020      	movs	r0, r4
 80002da:	f000 f8b5 	bl	8000448 <__clzdi2>
 80002de:	1a33      	subs	r3, r6, r0
 80002e0:	4698      	mov	r8, r3
 80002e2:	3b20      	subs	r3, #32
 80002e4:	469b      	mov	fp, r3
 80002e6:	d433      	bmi.n	8000350 <__udivmoddi4+0xa0>
 80002e8:	465a      	mov	r2, fp
 80002ea:	4653      	mov	r3, sl
 80002ec:	4093      	lsls	r3, r2
 80002ee:	4642      	mov	r2, r8
 80002f0:	001f      	movs	r7, r3
 80002f2:	4653      	mov	r3, sl
 80002f4:	4093      	lsls	r3, r2
 80002f6:	001e      	movs	r6, r3
 80002f8:	42af      	cmp	r7, r5
 80002fa:	d83a      	bhi.n	8000372 <__udivmoddi4+0xc2>
 80002fc:	42af      	cmp	r7, r5
 80002fe:	d100      	bne.n	8000302 <__udivmoddi4+0x52>
 8000300:	e078      	b.n	80003f4 <__udivmoddi4+0x144>
 8000302:	465b      	mov	r3, fp
 8000304:	1ba4      	subs	r4, r4, r6
 8000306:	41bd      	sbcs	r5, r7
 8000308:	2b00      	cmp	r3, #0
 800030a:	da00      	bge.n	800030e <__udivmoddi4+0x5e>
 800030c:	e075      	b.n	80003fa <__udivmoddi4+0x14a>
 800030e:	2200      	movs	r2, #0
 8000310:	2300      	movs	r3, #0
 8000312:	9200      	str	r2, [sp, #0]
 8000314:	9301      	str	r3, [sp, #4]
 8000316:	2301      	movs	r3, #1
 8000318:	465a      	mov	r2, fp
 800031a:	4093      	lsls	r3, r2
 800031c:	9301      	str	r3, [sp, #4]
 800031e:	2301      	movs	r3, #1
 8000320:	4642      	mov	r2, r8
 8000322:	4093      	lsls	r3, r2
 8000324:	9300      	str	r3, [sp, #0]
 8000326:	e028      	b.n	800037a <__udivmoddi4+0xca>
 8000328:	4282      	cmp	r2, r0
 800032a:	d9cf      	bls.n	80002cc <__udivmoddi4+0x1c>
 800032c:	2200      	movs	r2, #0
 800032e:	2300      	movs	r3, #0
 8000330:	9200      	str	r2, [sp, #0]
 8000332:	9301      	str	r3, [sp, #4]
 8000334:	9b0c      	ldr	r3, [sp, #48]	; 0x30
 8000336:	2b00      	cmp	r3, #0
 8000338:	d001      	beq.n	800033e <__udivmoddi4+0x8e>
 800033a:	601c      	str	r4, [r3, #0]
 800033c:	605d      	str	r5, [r3, #4]
 800033e:	9800      	ldr	r0, [sp, #0]
 8000340:	9901      	ldr	r1, [sp, #4]
 8000342:	b003      	add	sp, #12
 8000344:	bcf0      	pop	{r4, r5, r6, r7}
 8000346:	46bb      	mov	fp, r7
 8000348:	46b2      	mov	sl, r6
 800034a:	46a9      	mov	r9, r5
 800034c:	46a0      	mov	r8, r4
 800034e:	bdf0      	pop	{r4, r5, r6, r7, pc}
 8000350:	4642      	mov	r2, r8
 8000352:	2320      	movs	r3, #32
 8000354:	1a9b      	subs	r3, r3, r2
 8000356:	4652      	mov	r2, sl
 8000358:	40da      	lsrs	r2, r3
 800035a:	4641      	mov	r1, r8
 800035c:	0013      	movs	r3, r2
 800035e:	464a      	mov	r2, r9
 8000360:	408a      	lsls	r2, r1
 8000362:	0017      	movs	r7, r2
 8000364:	4642      	mov	r2, r8
 8000366:	431f      	orrs	r7, r3
 8000368:	4653      	mov	r3, sl
 800036a:	4093      	lsls	r3, r2
 800036c:	001e      	movs	r6, r3
 800036e:	42af      	cmp	r7, r5
 8000370:	d9c4      	bls.n	80002fc <__udivmoddi4+0x4c>
 8000372:	2200      	movs	r2, #0
 8000374:	2300      	movs	r3, #0
 8000376:	9200      	str	r2, [sp, #0]
 8000378:	9301      	str	r3, [sp, #4]
 800037a:	4643      	mov	r3, r8
 800037c:	2b00      	cmp	r3, #0
 800037e:	d0d9      	beq.n	8000334 <__udivmoddi4+0x84>
 8000380:	07fb      	lsls	r3, r7, #31
 8000382:	0872      	lsrs	r2, r6, #1
 8000384:	431a      	orrs	r2, r3
 8000386:	4646      	mov	r6, r8
 8000388:	087b      	lsrs	r3, r7, #1
 800038a:	e00e      	b.n	80003aa <__udivmoddi4+0xfa>
 800038c:	42ab      	cmp	r3, r5
 800038e:	d101      	bne.n	8000394 <__udivmoddi4+0xe4>
 8000390:	42a2      	cmp	r2, r4
 8000392:	d80c      	bhi.n	80003ae <__udivmoddi4+0xfe>
 8000394:	1aa4      	subs	r4, r4, r2
 8000396:	419d      	sbcs	r5, r3
 8000398:	2001      	movs	r0, #1
 800039a:	1924      	adds	r4, r4, r4
 800039c:	416d      	adcs	r5, r5
 800039e:	2100      	movs	r1, #0
 80003a0:	3e01      	subs	r6, #1
 80003a2:	1824      	adds	r4, r4, r0
 80003a4:	414d      	adcs	r5, r1
 80003a6:	2e00      	cmp	r6, #0
 80003a8:	d006      	beq.n	80003b8 <__udivmoddi4+0x108>
 80003aa:	42ab      	cmp	r3, r5
 80003ac:	d9ee      	bls.n	800038c <__udivmoddi4+0xdc>
 80003ae:	3e01      	subs	r6, #1
 80003b0:	1924      	adds	r4, r4, r4
 80003b2:	416d      	adcs	r5, r5
 80003b4:	2e00      	cmp	r6, #0
 80003b6:	d1f8      	bne.n	80003aa <__udivmoddi4+0xfa>
 80003b8:	9800      	ldr	r0, [sp, #0]
 80003ba:	9901      	ldr	r1, [sp, #4]
 80003bc:	465b      	mov	r3, fp
 80003be:	1900      	adds	r0, r0, r4
 80003c0:	4169      	adcs	r1, r5
 80003c2:	2b00      	cmp	r3, #0
 80003c4:	db24      	blt.n	8000410 <__udivmoddi4+0x160>
 80003c6:	002b      	movs	r3, r5
 80003c8:	465a      	mov	r2, fp
 80003ca:	4644      	mov	r4, r8
 80003cc:	40d3      	lsrs	r3, r2
 80003ce:	002a      	movs	r2, r5
 80003d0:	40e2      	lsrs	r2, r4
 80003d2:	001c      	movs	r4, r3
 80003d4:	465b      	mov	r3, fp
 80003d6:	0015      	movs	r5, r2
 80003d8:	2b00      	cmp	r3, #0
 80003da:	db2a      	blt.n	8000432 <__udivmoddi4+0x182>
 80003dc:	0026      	movs	r6, r4
 80003de:	409e      	lsls	r6, r3
 80003e0:	0033      	movs	r3, r6
 80003e2:	0026      	movs	r6, r4
 80003e4:	4647      	mov	r7, r8
 80003e6:	40be      	lsls	r6, r7
 80003e8:	0032      	movs	r2, r6
 80003ea:	1a80      	subs	r0, r0, r2
 80003ec:	4199      	sbcs	r1, r3
 80003ee:	9000      	str	r0, [sp, #0]
 80003f0:	9101      	str	r1, [sp, #4]
 80003f2:	e79f      	b.n	8000334 <__udivmoddi4+0x84>
 80003f4:	42a3      	cmp	r3, r4
 80003f6:	d8bc      	bhi.n	8000372 <__udivmoddi4+0xc2>
 80003f8:	e783      	b.n	8000302 <__udivmoddi4+0x52>
 80003fa:	4642      	mov	r2, r8
 80003fc:	2320      	movs	r3, #32
 80003fe:	2100      	movs	r1, #0
 8000400:	1a9b      	subs	r3, r3, r2
 8000402:	2200      	movs	r2, #0
 8000404:	9100      	str	r1, [sp, #0]
 8000406:	9201      	str	r2, [sp, #4]
 8000408:	2201      	movs	r2, #1
 800040a:	40da      	lsrs	r2, r3
 800040c:	9201      	str	r2, [sp, #4]
 800040e:	e786      	b.n	800031e <__udivmoddi4+0x6e>
 8000410:	4642      	mov	r2, r8
 8000412:	2320      	movs	r3, #32
 8000414:	1a9b      	subs	r3, r3, r2
 8000416:	002a      	movs	r2, r5
 8000418:	4646      	mov	r6, r8
 800041a:	409a      	lsls	r2, r3
 800041c:	0023      	movs	r3, r4
 800041e:	40f3      	lsrs	r3, r6
 8000420:	4644      	mov	r4, r8
 8000422:	4313      	orrs	r3, r2
 8000424:	002a      	movs	r2, r5
 8000426:	40e2      	lsrs	r2, r4
 8000428:	001c      	movs	r4, r3
 800042a:	465b      	mov	r3, fp
 800042c:	0015      	movs	r5, r2
 800042e:	2b00      	cmp	r3, #0
 8000430:	dad4      	bge.n	80003dc <__udivmoddi4+0x12c>
 8000432:	4642      	mov	r2, r8
 8000434:	002f      	movs	r7, r5
 8000436:	2320      	movs	r3, #32
 8000438:	0026      	movs	r6, r4
 800043a:	4097      	lsls	r7, r2
 800043c:	1a9b      	subs	r3, r3, r2
 800043e:	40de      	lsrs	r6, r3
 8000440:	003b      	movs	r3, r7
 8000442:	4333      	orrs	r3, r6
 8000444:	e7cd      	b.n	80003e2 <__udivmoddi4+0x132>
 8000446:	46c0      	nop			; (mov r8, r8)

08000448 <__clzdi2>:
 8000448:	b510      	push	{r4, lr}
 800044a:	2900      	cmp	r1, #0
 800044c:	d103      	bne.n	8000456 <__clzdi2+0xe>
 800044e:	f000 f807 	bl	8000460 <__clzsi2>
 8000452:	3020      	adds	r0, #32
 8000454:	e002      	b.n	800045c <__clzdi2+0x14>
 8000456:	1c08      	adds	r0, r1, #0
 8000458:	f000 f802 	bl	8000460 <__clzsi2>
 800045c:	bd10      	pop	{r4, pc}
 800045e:	46c0      	nop			; (mov r8, r8)

08000460 <__clzsi2>:
 8000460:	211c      	movs	r1, #28
 8000462:	2301      	movs	r3, #1
 8000464:	041b      	lsls	r3, r3, #16
 8000466:	4298      	cmp	r0, r3
 8000468:	d301      	bcc.n	800046e <__clzsi2+0xe>
 800046a:	0c00      	lsrs	r0, r0, #16
 800046c:	3910      	subs	r1, #16
 800046e:	0a1b      	lsrs	r3, r3, #8
 8000470:	4298      	cmp	r0, r3
 8000472:	d301      	bcc.n	8000478 <__clzsi2+0x18>
 8000474:	0a00      	lsrs	r0, r0, #8
 8000476:	3908      	subs	r1, #8
 8000478:	091b      	lsrs	r3, r3, #4
 800047a:	4298      	cmp	r0, r3
 800047c:	d301      	bcc.n	8000482 <__clzsi2+0x22>
 800047e:	0900      	lsrs	r0, r0, #4
 8000480:	3904      	subs	r1, #4
 8000482:	a202      	add	r2, pc, #8	; (adr r2, 800048c <__clzsi2+0x2c>)
 8000484:	5c10      	ldrb	r0, [r2, r0]
 8000486:	1840      	adds	r0, r0, r1
 8000488:	4770      	bx	lr
 800048a:	46c0      	nop			; (mov r8, r8)
 800048c:	02020304 	.word	0x02020304
 8000490:	01010101 	.word	0x01010101
	...

0800049c <MX_GPIO_Init>:
/* USER CODE END 1 */

/** Configure pins
*/
void MX_GPIO_Init(void)
{
 800049c:	b5f0      	push	{r4, r5, r6, r7, lr}
 800049e:	b08b      	sub	sp, #44	; 0x2c

  GPIO_InitTypeDef GPIO_InitStruct = {0};
 80004a0:	2214      	movs	r2, #20
 80004a2:	2100      	movs	r1, #0
 80004a4:	a804      	add	r0, sp, #16
 80004a6:	f002 fe33 	bl	8003110 <memset>

  /* GPIO Ports Clock Enable */
  __HAL_RCC_GPIOA_CLK_ENABLE();
 80004aa:	2201      	movs	r2, #1
 80004ac:	4b29      	ldr	r3, [pc, #164]	; (8000554 <MX_GPIO_Init+0xb8>)
  __HAL_RCC_GPIOB_CLK_ENABLE();
  __HAL_RCC_GPIOC_CLK_ENABLE();

  /*Configure GPIO pin Output Level */
  HAL_GPIO_WritePin(GPIOC, CHN_OUT_RST_Pin|CHN_OUT_BT0_Pin, GPIO_PIN_RESET);
 80004ae:	4d2a      	ldr	r5, [pc, #168]	; (8000558 <MX_GPIO_Init+0xbc>)
  __HAL_RCC_GPIOA_CLK_ENABLE();
 80004b0:	6ad9      	ldr	r1, [r3, #44]	; 0x2c
  HAL_GPIO_WritePin(GPIOC, CHN_OUT_RST_Pin|CHN_OUT_BT0_Pin, GPIO_PIN_RESET);
 80004b2:	0028      	movs	r0, r5
  __HAL_RCC_GPIOA_CLK_ENABLE();
 80004b4:	4311      	orrs	r1, r2
 80004b6:	62d9      	str	r1, [r3, #44]	; 0x2c
 80004b8:	6ad9      	ldr	r1, [r3, #44]	; 0x2c

  /*Configure GPIO pin Output Level */
  HAL_GPIO_WritePin(GPIOA, SPI_C_CS_Pin|SPI_A_CS_Pin|SPI_B_CS_Pin, GPIO_PIN_RESET);
 80004ba:	24a0      	movs	r4, #160	; 0xa0
  __HAL_RCC_GPIOA_CLK_ENABLE();
 80004bc:	400a      	ands	r2, r1
 80004be:	9201      	str	r2, [sp, #4]
 80004c0:	9a01      	ldr	r2, [sp, #4]
  __HAL_RCC_GPIOB_CLK_ENABLE();
 80004c2:	2202      	movs	r2, #2
 80004c4:	6ad9      	ldr	r1, [r3, #44]	; 0x2c
  HAL_GPIO_WritePin(GPIOA, SPI_C_CS_Pin|SPI_A_CS_Pin|SPI_B_CS_Pin, GPIO_PIN_RESET);
 80004c6:	05e4      	lsls	r4, r4, #23
  __HAL_RCC_GPIOB_CLK_ENABLE();
 80004c8:	4311      	orrs	r1, r2
 80004ca:	62d9      	str	r1, [r3, #44]	; 0x2c
 80004cc:	6ad9      	ldr	r1, [r3, #44]	; 0x2c
  /*Configure GPIO pins : PAPin PAPin PAPin PAPin
                           PAPin PAPin PAPin PAPin */
  GPIO_InitStruct.Pin = BUS_C0_Pin|BUS_C2_Pin|BUS_C1_Pin|programmer_TX_line_Pin
                          |programmer_RX_line_Pin|BUS_CLK_Pin|mag_int_c_Pin|mag_int_b_Pin;
  GPIO_InitStruct.Mode = GPIO_MODE_INPUT;
  GPIO_InitStruct.Pull = GPIO_NOPULL;
 80004ce:	2600      	movs	r6, #0
  __HAL_RCC_GPIOB_CLK_ENABLE();
 80004d0:	400a      	ands	r2, r1
 80004d2:	9202      	str	r2, [sp, #8]
 80004d4:	9a02      	ldr	r2, [sp, #8]
  __HAL_RCC_GPIOC_CLK_ENABLE();
 80004d6:	2204      	movs	r2, #4
 80004d8:	6ad9      	ldr	r1, [r3, #44]	; 0x2c
  GPIO_InitStruct.Mode = GPIO_MODE_INPUT;
  GPIO_InitStruct.Pull = GPIO_NOPULL;
  HAL_GPIO_Init(GPIOB, &GPIO_InitStruct);

  /*Configure GPIO pins : PCPin PCPin */
  GPIO_InitStruct.Pin = CHN_OUT_RST_Pin|CHN_OUT_BT0_Pin;
 80004da:	2700      	movs	r7, #0
  __HAL_RCC_GPIOC_CLK_ENABLE();
 80004dc:	4311      	orrs	r1, r2
 80004de:	62d9      	str	r1, [r3, #44]	; 0x2c
  HAL_GPIO_WritePin(GPIOC, CHN_OUT_RST_Pin|CHN_OUT_BT0_Pin, GPIO_PIN_RESET);
 80004e0:	21c0      	movs	r1, #192	; 0xc0
  __HAL_RCC_GPIOC_CLK_ENABLE();
 80004e2:	6adb      	ldr	r3, [r3, #44]	; 0x2c
  HAL_GPIO_WritePin(GPIOC, CHN_OUT_RST_Pin|CHN_OUT_BT0_Pin, GPIO_PIN_RESET);
 80004e4:	0209      	lsls	r1, r1, #8
  __HAL_RCC_GPIOC_CLK_ENABLE();
 80004e6:	401a      	ands	r2, r3
 80004e8:	9203      	str	r2, [sp, #12]
  HAL_GPIO_WritePin(GPIOC, CHN_OUT_RST_Pin|CHN_OUT_BT0_Pin, GPIO_PIN_RESET);
 80004ea:	2200      	movs	r2, #0
  __HAL_RCC_GPIOC_CLK_ENABLE();
 80004ec:	9b03      	ldr	r3, [sp, #12]
  HAL_GPIO_WritePin(GPIOC, CHN_OUT_RST_Pin|CHN_OUT_BT0_Pin, GPIO_PIN_RESET);
 80004ee:	f000 fc0b 	bl	8000d08 <HAL_GPIO_WritePin>
  HAL_GPIO_WritePin(GPIOA, SPI_C_CS_Pin|SPI_A_CS_Pin|SPI_B_CS_Pin, GPIO_PIN_RESET);
 80004f2:	21e0      	movs	r1, #224	; 0xe0
 80004f4:	0020      	movs	r0, r4
 80004f6:	2200      	movs	r2, #0
 80004f8:	0049      	lsls	r1, r1, #1
 80004fa:	f000 fc05 	bl	8000d08 <HAL_GPIO_WritePin>
  GPIO_InitStruct.Pin = BUS_C0_Pin|BUS_C2_Pin|BUS_C1_Pin|programmer_TX_line_Pin
 80004fe:	2300      	movs	r3, #0
 8000500:	4a16      	ldr	r2, [pc, #88]	; (800055c <MX_GPIO_Init+0xc0>)
  HAL_GPIO_Init(GPIOA, &GPIO_InitStruct);
 8000502:	0020      	movs	r0, r4
 8000504:	a904      	add	r1, sp, #16
  GPIO_InitStruct.Pin = BUS_C0_Pin|BUS_C2_Pin|BUS_C1_Pin|programmer_TX_line_Pin
 8000506:	9204      	str	r2, [sp, #16]
 8000508:	9305      	str	r3, [sp, #20]
  GPIO_InitStruct.Pull = GPIO_NOPULL;
 800050a:	9606      	str	r6, [sp, #24]
  HAL_GPIO_Init(GPIOA, &GPIO_InitStruct);
 800050c:	f000 fb0c 	bl	8000b28 <HAL_GPIO_Init>
  GPIO_InitStruct.Pin = BUS4_Pin|BUS7_Pin|BUS3_Pin|BUS6_Pin
 8000510:	2300      	movs	r3, #0
 8000512:	4a13      	ldr	r2, [pc, #76]	; (8000560 <MX_GPIO_Init+0xc4>)
  HAL_GPIO_Init(GPIOB, &GPIO_InitStruct);
 8000514:	a904      	add	r1, sp, #16
 8000516:	4813      	ldr	r0, [pc, #76]	; (8000564 <MX_GPIO_Init+0xc8>)
  GPIO_InitStruct.Pin = BUS4_Pin|BUS7_Pin|BUS3_Pin|BUS6_Pin
 8000518:	9204      	str	r2, [sp, #16]
 800051a:	9305      	str	r3, [sp, #20]
  GPIO_InitStruct.Pull = GPIO_NOPULL;
 800051c:	9606      	str	r6, [sp, #24]
  HAL_GPIO_Init(GPIOB, &GPIO_InitStruct);
 800051e:	f000 fb03 	bl	8000b28 <HAL_GPIO_Init>
  GPIO_InitStruct.Pin = CHN_OUT_RST_Pin|CHN_OUT_BT0_Pin;
 8000522:	22c0      	movs	r2, #192	; 0xc0
 8000524:	2301      	movs	r3, #1
 8000526:	2600      	movs	r6, #0
  GPIO_InitStruct.Mode = GPIO_MODE_OUTPUT_PP;
  GPIO_InitStruct.Pull = GPIO_NOPULL;
  GPIO_InitStruct.Speed = GPIO_SPEED_FREQ_LOW;
  HAL_GPIO_Init(GPIOC, &GPIO_InitStruct);
 8000528:	0028      	movs	r0, r5
  GPIO_InitStruct.Pin = CHN_OUT_RST_Pin|CHN_OUT_BT0_Pin;
 800052a:	0212      	lsls	r2, r2, #8
  HAL_GPIO_Init(GPIOC, &GPIO_InitStruct);
 800052c:	a904      	add	r1, sp, #16
  GPIO_InitStruct.Pin = CHN_OUT_RST_Pin|CHN_OUT_BT0_Pin;
 800052e:	9204      	str	r2, [sp, #16]
 8000530:	9305      	str	r3, [sp, #20]
 8000532:	9606      	str	r6, [sp, #24]
 8000534:	9707      	str	r7, [sp, #28]
  HAL_GPIO_Init(GPIOC, &GPIO_InitStruct);
 8000536:	f000 faf7 	bl	8000b28 <HAL_GPIO_Init>

  /*Configure GPIO pins : PAPin PAPin PAPin */
  GPIO_InitStruct.Pin = SPI_C_CS_Pin|SPI_A_CS_Pin|SPI_B_CS_Pin;
 800053a:	22e0      	movs	r2, #224	; 0xe0
 800053c:	2301      	movs	r3, #1
 800053e:	0052      	lsls	r2, r2, #1
  GPIO_InitStruct.Mode = GPIO_MODE_OUTPUT_PP;
  GPIO_InitStruct.Pull = GPIO_NOPULL;
  GPIO_InitStruct.Speed = GPIO_SPEED_FREQ_LOW;
  HAL_GPIO_Init(GPIOA, &GPIO_InitStruct);
 8000540:	0020      	movs	r0, r4
 8000542:	a904      	add	r1, sp, #16
  GPIO_InitStruct.Pin = SPI_C_CS_Pin|SPI_A_CS_Pin|SPI_B_CS_Pin;
 8000544:	9204      	str	r2, [sp, #16]
 8000546:	9305      	str	r3, [sp, #20]
 8000548:	9606      	str	r6, [sp, #24]
 800054a:	9707      	str	r7, [sp, #28]
  HAL_GPIO_Init(GPIOA, &GPIO_InitStruct);
 800054c:	f000 faec 	bl	8000b28 <HAL_GPIO_Init>

}
 8000550:	b00b      	add	sp, #44	; 0x2c
 8000552:	bdf0      	pop	{r4, r5, r6, r7, pc}
 8000554:	40021000 	.word	0x40021000
 8000558:	50000800 	.word	0x50000800
 800055c:	0000e619 	.word	0x0000e619
 8000560:	000001ff 	.word	0x000001ff
 8000564:	50000400 	.word	0x50000400

08000568 <MX_I2C2_Init>:

I2C_HandleTypeDef hi2c2;

/* I2C2 init function */
void MX_I2C2_Init(void)
{
 8000568:	b510      	push	{r4, lr}
  /* USER CODE END I2C2_Init 0 */

  /* USER CODE BEGIN I2C2_Init 1 */

  /* USER CODE END I2C2_Init 1 */
  hi2c2.Instance = I2C2;
 800056a:	4b1e      	ldr	r3, [pc, #120]	; (80005e4 <MX_I2C2_Init+0x7c>)
 800056c:	4c1e      	ldr	r4, [pc, #120]	; (80005e8 <MX_I2C2_Init+0x80>)
 800056e:	6023      	str	r3, [r4, #0]
  hi2c2.Init.Timing = 0x00100413;
 8000570:	4b1e      	ldr	r3, [pc, #120]	; (80005ec <MX_I2C2_Init+0x84>)
  hi2c2.Init.DualAddressMode = I2C_DUALADDRESS_DISABLE;
  hi2c2.Init.OwnAddress2 = 0;
  hi2c2.Init.OwnAddress2Masks = I2C_OA2_NOMASK;
  hi2c2.Init.GeneralCallMode = I2C_GENERALCALL_ENABLE;
  hi2c2.Init.NoStretchMode = I2C_NOSTRETCH_ENABLE;
  if (HAL_I2C_Init(&hi2c2) != HAL_OK)
 8000572:	0020      	movs	r0, r4
  hi2c2.Init.Timing = 0x00100413;
 8000574:	6063      	str	r3, [r4, #4]
  hi2c2.Init.OwnAddress1 = 200;
 8000576:	23c8      	movs	r3, #200	; 0xc8
 8000578:	60a3      	str	r3, [r4, #8]
  hi2c2.Init.AddressingMode = I2C_ADDRESSINGMODE_7BIT;
 800057a:	3bc7      	subs	r3, #199	; 0xc7
 800057c:	60e3      	str	r3, [r4, #12]
  hi2c2.Init.DualAddressMode = I2C_DUALADDRESS_DISABLE;
 800057e:	2300      	movs	r3, #0
 8000580:	6123      	str	r3, [r4, #16]
  hi2c2.Init.OwnAddress2 = 0;
 8000582:	6163      	str	r3, [r4, #20]
  hi2c2.Init.OwnAddress2Masks = I2C_OA2_NOMASK;
 8000584:	61a3      	str	r3, [r4, #24]
  hi2c2.Init.GeneralCallMode = I2C_GENERALCALL_ENABLE;
 8000586:	2380      	movs	r3, #128	; 0x80
 8000588:	031b      	lsls	r3, r3, #12
 800058a:	61e3      	str	r3, [r4, #28]
  hi2c2.Init.NoStretchMode = I2C_NOSTRETCH_ENABLE;
 800058c:	2380      	movs	r3, #128	; 0x80
 800058e:	029b      	lsls	r3, r3, #10
 8000590:	6223      	str	r3, [r4, #32]
  if (HAL_I2C_Init(&hi2c2) != HAL_OK)
 8000592:	f000 fbbf 	bl	8000d14 <HAL_I2C_Init>
 8000596:	2800      	cmp	r0, #0
 8000598:	d110      	bne.n	80005bc <MX_I2C2_Init+0x54>
  {
    Error_Handler();
  }
  /** Configure Analogue filter
  */
  if (HAL_I2CEx_ConfigAnalogFilter(&hi2c2, I2C_ANALOGFILTER_ENABLE) != HAL_OK)
 800059a:	2100      	movs	r1, #0
 800059c:	0020      	movs	r0, r4
 800059e:	f000 fc13 	bl	8000dc8 <HAL_I2CEx_ConfigAnalogFilter>
 80005a2:	2800      	cmp	r0, #0
 80005a4:	d112      	bne.n	80005cc <MX_I2C2_Init+0x64>
  {
    Error_Handler();
  }
  /** Configure Digital filter
  */
  if (HAL_I2CEx_ConfigDigitalFilter(&hi2c2, 0) != HAL_OK)
 80005a6:	2100      	movs	r1, #0
 80005a8:	0020      	movs	r0, r4
 80005aa:	f000 fc35 	bl	8000e18 <HAL_I2CEx_ConfigDigitalFilter>
 80005ae:	2800      	cmp	r0, #0
 80005b0:	d114      	bne.n	80005dc <MX_I2C2_Init+0x74>
  {
    Error_Handler();
  }
  /** I2C Fast mode Plus enable
  */
  HAL_I2CEx_EnableFastModePlus(I2C_FASTMODEPLUS_I2C2);
 80005b2:	2080      	movs	r0, #128	; 0x80
 80005b4:	0180      	lsls	r0, r0, #6
 80005b6:	f000 fc55 	bl	8000e64 <HAL_I2CEx_EnableFastModePlus>
  /* USER CODE BEGIN I2C2_Init 2 */

  /* USER CODE END I2C2_Init 2 */

}
 80005ba:	bd10      	pop	{r4, pc}
    Error_Handler();
 80005bc:	f000 f8ae 	bl	800071c <Error_Handler>
  if (HAL_I2CEx_ConfigAnalogFilter(&hi2c2, I2C_ANALOGFILTER_ENABLE) != HAL_OK)
 80005c0:	2100      	movs	r1, #0
 80005c2:	0020      	movs	r0, r4
 80005c4:	f000 fc00 	bl	8000dc8 <HAL_I2CEx_ConfigAnalogFilter>
 80005c8:	2800      	cmp	r0, #0
 80005ca:	d0ec      	beq.n	80005a6 <MX_I2C2_Init+0x3e>
    Error_Handler();
 80005cc:	f000 f8a6 	bl	800071c <Error_Handler>
  if (HAL_I2CEx_ConfigDigitalFilter(&hi2c2, 0) != HAL_OK)
 80005d0:	2100      	movs	r1, #0
 80005d2:	0020      	movs	r0, r4
 80005d4:	f000 fc20 	bl	8000e18 <HAL_I2CEx_ConfigDigitalFilter>
 80005d8:	2800      	cmp	r0, #0
 80005da:	d0ea      	beq.n	80005b2 <MX_I2C2_Init+0x4a>
    Error_Handler();
 80005dc:	f000 f89e 	bl	800071c <Error_Handler>
 80005e0:	e7e7      	b.n	80005b2 <MX_I2C2_Init+0x4a>
 80005e2:	46c0      	nop			; (mov r8, r8)
 80005e4:	40005800 	.word	0x40005800
 80005e8:	20000098 	.word	0x20000098
 80005ec:	00100413 	.word	0x00100413

080005f0 <HAL_I2C_MspInit>:

void HAL_I2C_MspInit(I2C_HandleTypeDef* i2cHandle)
{
 80005f0:	b510      	push	{r4, lr}
 80005f2:	0004      	movs	r4, r0
 80005f4:	b088      	sub	sp, #32

  GPIO_InitTypeDef GPIO_InitStruct = {0};
 80005f6:	2214      	movs	r2, #20
 80005f8:	2100      	movs	r1, #0
 80005fa:	a802      	add	r0, sp, #8
 80005fc:	f002 fd88 	bl	8003110 <memset>
  if(i2cHandle->Instance==I2C2)
 8000600:	4b15      	ldr	r3, [pc, #84]	; (8000658 <HAL_I2C_MspInit+0x68>)
 8000602:	6822      	ldr	r2, [r4, #0]
 8000604:	429a      	cmp	r2, r3
 8000606:	d001      	beq.n	800060c <HAL_I2C_MspInit+0x1c>
    HAL_NVIC_EnableIRQ(I2C2_IRQn);
  /* USER CODE BEGIN I2C2_MspInit 1 */

  /* USER CODE END I2C2_MspInit 1 */
  }
}
 8000608:	b008      	add	sp, #32
 800060a:	bd10      	pop	{r4, pc}
    __HAL_RCC_GPIOB_CLK_ENABLE();
 800060c:	2302      	movs	r3, #2
 800060e:	4c13      	ldr	r4, [pc, #76]	; (800065c <HAL_I2C_MspInit+0x6c>)
    HAL_GPIO_Init(GPIOB, &GPIO_InitStruct);
 8000610:	a902      	add	r1, sp, #8
    __HAL_RCC_GPIOB_CLK_ENABLE();
 8000612:	6ae2      	ldr	r2, [r4, #44]	; 0x2c
    HAL_GPIO_Init(GPIOB, &GPIO_InitStruct);
 8000614:	4812      	ldr	r0, [pc, #72]	; (8000660 <HAL_I2C_MspInit+0x70>)
    __HAL_RCC_GPIOB_CLK_ENABLE();
 8000616:	431a      	orrs	r2, r3
 8000618:	62e2      	str	r2, [r4, #44]	; 0x2c
 800061a:	6ae2      	ldr	r2, [r4, #44]	; 0x2c
 800061c:	4013      	ands	r3, r2
 800061e:	9301      	str	r3, [sp, #4]
    GPIO_InitStruct.Pin = GPIO_PIN_11|GPIO_PIN_10;
 8000620:	22c0      	movs	r2, #192	; 0xc0
    __HAL_RCC_GPIOB_CLK_ENABLE();
 8000622:	9b01      	ldr	r3, [sp, #4]
    GPIO_InitStruct.Pin = GPIO_PIN_11|GPIO_PIN_10;
 8000624:	2312      	movs	r3, #18
 8000626:	0112      	lsls	r2, r2, #4
 8000628:	9202      	str	r2, [sp, #8]
 800062a:	9303      	str	r3, [sp, #12]
 800062c:	2201      	movs	r2, #1
 800062e:	2303      	movs	r3, #3
 8000630:	9204      	str	r2, [sp, #16]
 8000632:	9305      	str	r3, [sp, #20]
    GPIO_InitStruct.Alternate = GPIO_AF6_I2C2;
 8000634:	2306      	movs	r3, #6
 8000636:	9306      	str	r3, [sp, #24]
    HAL_GPIO_Init(GPIOB, &GPIO_InitStruct);
 8000638:	f000 fa76 	bl	8000b28 <HAL_GPIO_Init>
    __HAL_RCC_I2C2_CLK_ENABLE();
 800063c:	2380      	movs	r3, #128	; 0x80
 800063e:	6ba2      	ldr	r2, [r4, #56]	; 0x38
 8000640:	03db      	lsls	r3, r3, #15
 8000642:	4313      	orrs	r3, r2
    HAL_NVIC_SetPriority(I2C2_IRQn, 0, 0);
 8000644:	2100      	movs	r1, #0
 8000646:	2200      	movs	r2, #0
 8000648:	2018      	movs	r0, #24
    __HAL_RCC_I2C2_CLK_ENABLE();
 800064a:	63a3      	str	r3, [r4, #56]	; 0x38
    HAL_NVIC_SetPriority(I2C2_IRQn, 0, 0);
 800064c:	f000 fa14 	bl	8000a78 <HAL_NVIC_SetPriority>
    HAL_NVIC_EnableIRQ(I2C2_IRQn);
 8000650:	2018      	movs	r0, #24
 8000652:	f000 fa43 	bl	8000adc <HAL_NVIC_EnableIRQ>
}
 8000656:	e7d7      	b.n	8000608 <HAL_I2C_MspInit+0x18>
 8000658:	40005800 	.word	0x40005800
 800065c:	40021000 	.word	0x40021000
 8000660:	50000400 	.word	0x50000400

08000664 <SystemClock_Config>:
/**
  * @brief System Clock Configuration
  * @retval None
  */
void SystemClock_Config(void)
{
 8000664:	b500      	push	{lr}
 8000666:	b095      	sub	sp, #84	; 0x54
  RCC_OscInitTypeDef RCC_OscInitStruct = {0};
 8000668:	2224      	movs	r2, #36	; 0x24
 800066a:	2100      	movs	r1, #0
 800066c:	a807      	add	r0, sp, #28
 800066e:	f002 fd4f 	bl	8003110 <memset>
  RCC_ClkInitTypeDef RCC_ClkInitStruct = {0};
 8000672:	2214      	movs	r2, #20
 8000674:	2100      	movs	r1, #0
 8000676:	4668      	mov	r0, sp
 8000678:	f002 fd4a 	bl	8003110 <memset>

  /** Configure the main internal regulator output voltage
  */
  __HAL_PWR_VOLTAGESCALING_CONFIG(PWR_REGULATOR_VOLTAGE_SCALE1);
 800067c:	4919      	ldr	r1, [pc, #100]	; (80006e4 <SystemClock_Config+0x80>)
 800067e:	4a1a      	ldr	r2, [pc, #104]	; (80006e8 <SystemClock_Config+0x84>)
 8000680:	680b      	ldr	r3, [r1, #0]
  RCC_OscInitStruct.HSI48State = RCC_HSI48_ON;
  RCC_OscInitStruct.PLL.PLLState = RCC_PLL_ON;
  RCC_OscInitStruct.PLL.PLLSource = RCC_PLLSOURCE_HSI;
  RCC_OscInitStruct.PLL.PLLMUL = RCC_PLLMUL_4;
  RCC_OscInitStruct.PLL.PLLDIV = RCC_PLLDIV_2;
  if (HAL_RCC_OscConfig(&RCC_OscInitStruct) != HAL_OK)
 8000682:	a806      	add	r0, sp, #24
  __HAL_PWR_VOLTAGESCALING_CONFIG(PWR_REGULATOR_VOLTAGE_SCALE1);
 8000684:	401a      	ands	r2, r3
 8000686:	2380      	movs	r3, #128	; 0x80
 8000688:	011b      	lsls	r3, r3, #4
 800068a:	4313      	orrs	r3, r2
 800068c:	600b      	str	r3, [r1, #0]
  RCC_OscInitStruct.OscillatorType = RCC_OSCILLATORTYPE_HSI|RCC_OSCILLATORTYPE_HSI48;
 800068e:	2322      	movs	r3, #34	; 0x22
  RCC_OscInitStruct.HSICalibrationValue = RCC_HSICALIBRATION_DEFAULT;
 8000690:	2210      	movs	r2, #16
  RCC_OscInitStruct.OscillatorType = RCC_OSCILLATORTYPE_HSI|RCC_OSCILLATORTYPE_HSI48;
 8000692:	9306      	str	r3, [sp, #24]
  RCC_OscInitStruct.HSIState = RCC_HSI_ON;
 8000694:	3b21      	subs	r3, #33	; 0x21
 8000696:	9309      	str	r3, [sp, #36]	; 0x24
  RCC_OscInitStruct.HSICalibrationValue = RCC_HSICALIBRATION_DEFAULT;
 8000698:	920a      	str	r2, [sp, #40]	; 0x28
  RCC_OscInitStruct.HSI48State = RCC_HSI48_ON;
 800069a:	930c      	str	r3, [sp, #48]	; 0x30
  RCC_OscInitStruct.PLL.PLLState = RCC_PLL_ON;
 800069c:	2202      	movs	r2, #2
 800069e:	2300      	movs	r3, #0
 80006a0:	9210      	str	r2, [sp, #64]	; 0x40
 80006a2:	9311      	str	r3, [sp, #68]	; 0x44
 80006a4:	2280      	movs	r2, #128	; 0x80
 80006a6:	2380      	movs	r3, #128	; 0x80
 80006a8:	02d2      	lsls	r2, r2, #11
 80006aa:	03db      	lsls	r3, r3, #15
 80006ac:	9212      	str	r2, [sp, #72]	; 0x48
 80006ae:	9313      	str	r3, [sp, #76]	; 0x4c
  if (HAL_RCC_OscConfig(&RCC_OscInitStruct) != HAL_OK)
 80006b0:	f000 fc2c 	bl	8000f0c <HAL_RCC_OscConfig>
 80006b4:	2800      	cmp	r0, #0
 80006b6:	d001      	beq.n	80006bc <SystemClock_Config+0x58>
  \details Disables IRQ interrupts by setting the I-bit in the CPSR.
           Can only be executed in Privileged modes.
 */
__STATIC_FORCEINLINE void __disable_irq(void)
{
  __ASM volatile ("cpsid i" : : : "memory");
 80006b8:	b672      	cpsid	i
void Error_Handler(void)
{
  /* USER CODE BEGIN Error_Handler_Debug */
  /* User can add his own implementation to report the HAL error return state */
  __disable_irq();
  while (1)
 80006ba:	e7fe      	b.n	80006ba <SystemClock_Config+0x56>
  RCC_ClkInitStruct.ClockType = RCC_CLOCKTYPE_HCLK|RCC_CLOCKTYPE_SYSCLK
 80006bc:	220f      	movs	r2, #15
 80006be:	2303      	movs	r3, #3
 80006c0:	9200      	str	r2, [sp, #0]
 80006c2:	9301      	str	r3, [sp, #4]
 80006c4:	2200      	movs	r2, #0
 80006c6:	2300      	movs	r3, #0
  RCC_ClkInitStruct.APB2CLKDivider = RCC_HCLK_DIV1;
 80006c8:	9004      	str	r0, [sp, #16]
  if (HAL_RCC_ClockConfig(&RCC_ClkInitStruct, FLASH_LATENCY_1) != HAL_OK)
 80006ca:	2101      	movs	r1, #1
 80006cc:	4668      	mov	r0, sp
  RCC_ClkInitStruct.ClockType = RCC_CLOCKTYPE_HCLK|RCC_CLOCKTYPE_SYSCLK
 80006ce:	9202      	str	r2, [sp, #8]
 80006d0:	9303      	str	r3, [sp, #12]
  if (HAL_RCC_ClockConfig(&RCC_ClkInitStruct, FLASH_LATENCY_1) != HAL_OK)
 80006d2:	f000 ff13 	bl	80014fc <HAL_RCC_ClockConfig>
 80006d6:	2800      	cmp	r0, #0
 80006d8:	d001      	beq.n	80006de <SystemClock_Config+0x7a>
 80006da:	b672      	cpsid	i
  while (1)
 80006dc:	e7fe      	b.n	80006dc <SystemClock_Config+0x78>
}
 80006de:	b015      	add	sp, #84	; 0x54
 80006e0:	bd00      	pop	{pc}
 80006e2:	46c0      	nop			; (mov r8, r8)
 80006e4:	40007000 	.word	0x40007000
 80006e8:	ffffe7ff 	.word	0xffffe7ff

080006ec <main>:
{
 80006ec:	b510      	push	{r4, lr}
  HAL_Init();
 80006ee:	f000 f983 	bl	80009f8 <HAL_Init>
  SystemClock_Config();
 80006f2:	f7ff ffb7 	bl	8000664 <SystemClock_Config>
  MX_GPIO_Init();
 80006f6:	f7ff fed1 	bl	800049c <MX_GPIO_Init>
  MX_I2C2_Init();
 80006fa:	f7ff ff35 	bl	8000568 <MX_I2C2_Init>
  MX_SPI1_Init();
 80006fe:	f000 f80f 	bl	8000720 <MX_SPI1_Init>
  MX_TIM21_Init();
 8000702:	f000 f8ab 	bl	800085c <MX_TIM21_Init>
  module_system_init(&my_sys);
 8000706:	4c04      	ldr	r4, [pc, #16]	; (8000718 <main+0x2c>)
 8000708:	0020      	movs	r0, r4
 800070a:	f002 fa91 	bl	8002c30 <module_system_init>
	  state_machine(&my_sys);
 800070e:	0020      	movs	r0, r4
 8000710:	f002 faf0 	bl	8002cf4 <state_machine>
  while (1)
 8000714:	e7fb      	b.n	800070e <main+0x22>
 8000716:	46c0      	nop			; (mov r8, r8)
 8000718:	200000e4 	.word	0x200000e4

0800071c <Error_Handler>:
 800071c:	b672      	cpsid	i
  while (1)
 800071e:	e7fe      	b.n	800071e <Error_Handler+0x2>

08000720 <MX_SPI1_Init>:
  /* USER CODE END SPI1_Init 0 */

  /* USER CODE BEGIN SPI1_Init 1 */

  /* USER CODE END SPI1_Init 1 */
  hspi1.Instance = SPI1;
 8000720:	4810      	ldr	r0, [pc, #64]	; (8000764 <MX_SPI1_Init+0x44>)
  hspi1.Init.Mode = SPI_MODE_MASTER;
  hspi1.Init.Direction = SPI_DIRECTION_2LINES;
  hspi1.Init.DataSize = SPI_DATASIZE_8BIT;
  hspi1.Init.CLKPolarity = SPI_POLARITY_HIGH;
 8000722:	2202      	movs	r2, #2
  hspi1.Instance = SPI1;
 8000724:	4b10      	ldr	r3, [pc, #64]	; (8000768 <MX_SPI1_Init+0x48>)
{
 8000726:	b510      	push	{r4, lr}
  hspi1.Instance = SPI1;
 8000728:	6003      	str	r3, [r0, #0]
  hspi1.Init.Mode = SPI_MODE_MASTER;
 800072a:	2382      	movs	r3, #130	; 0x82
  hspi1.Init.CLKPolarity = SPI_POLARITY_HIGH;
 800072c:	6102      	str	r2, [r0, #16]
  hspi1.Init.CLKPhase = SPI_PHASE_2EDGE;
 800072e:	3a01      	subs	r2, #1
 8000730:	6142      	str	r2, [r0, #20]
  hspi1.Init.NSS = SPI_NSS_SOFT;
 8000732:	2280      	movs	r2, #128	; 0x80
  hspi1.Init.Mode = SPI_MODE_MASTER;
 8000734:	005b      	lsls	r3, r3, #1
 8000736:	6043      	str	r3, [r0, #4]
  hspi1.Init.Direction = SPI_DIRECTION_2LINES;
 8000738:	2300      	movs	r3, #0
  hspi1.Init.NSS = SPI_NSS_SOFT;
 800073a:	0092      	lsls	r2, r2, #2
 800073c:	6182      	str	r2, [r0, #24]
  hspi1.Init.BaudRatePrescaler = SPI_BAUDRATEPRESCALER_4;
 800073e:	3af9      	subs	r2, #249	; 0xf9
  hspi1.Init.Direction = SPI_DIRECTION_2LINES;
 8000740:	6083      	str	r3, [r0, #8]
  hspi1.Init.DataSize = SPI_DATASIZE_8BIT;
 8000742:	60c3      	str	r3, [r0, #12]
  hspi1.Init.BaudRatePrescaler = SPI_BAUDRATEPRESCALER_4;
 8000744:	3aff      	subs	r2, #255	; 0xff
  hspi1.Init.FirstBit = SPI_FIRSTBIT_MSB;
 8000746:	6203      	str	r3, [r0, #32]
  hspi1.Init.TIMode = SPI_TIMODE_DISABLE;
 8000748:	6243      	str	r3, [r0, #36]	; 0x24
  hspi1.Init.CRCCalculation = SPI_CRCCALCULATION_DISABLE;
 800074a:	6283      	str	r3, [r0, #40]	; 0x28
  hspi1.Init.CRCPolynomial = 7;
 800074c:	3307      	adds	r3, #7
  hspi1.Init.BaudRatePrescaler = SPI_BAUDRATEPRESCALER_4;
 800074e:	61c2      	str	r2, [r0, #28]
  hspi1.Init.CRCPolynomial = 7;
 8000750:	62c3      	str	r3, [r0, #44]	; 0x2c
  if (HAL_SPI_Init(&hspi1) != HAL_OK)
 8000752:	f001 f829 	bl	80017a8 <HAL_SPI_Init>
 8000756:	2800      	cmp	r0, #0
 8000758:	d100      	bne.n	800075c <MX_SPI1_Init+0x3c>
  }
  /* USER CODE BEGIN SPI1_Init 2 */

  /* USER CODE END SPI1_Init 2 */

}
 800075a:	bd10      	pop	{r4, pc}
    Error_Handler();
 800075c:	f7ff ffde 	bl	800071c <Error_Handler>
}
 8000760:	e7fb      	b.n	800075a <MX_SPI1_Init+0x3a>
 8000762:	46c0      	nop			; (mov r8, r8)
 8000764:	200001d0 	.word	0x200001d0
 8000768:	40013000 	.word	0x40013000

0800076c <HAL_SPI_MspInit>:

void HAL_SPI_MspInit(SPI_HandleTypeDef* spiHandle)
{
 800076c:	b510      	push	{r4, lr}
 800076e:	0004      	movs	r4, r0
 8000770:	b088      	sub	sp, #32

  GPIO_InitTypeDef GPIO_InitStruct = {0};
 8000772:	2214      	movs	r2, #20
 8000774:	2100      	movs	r1, #0
 8000776:	a802      	add	r0, sp, #8
 8000778:	f002 fcca 	bl	8003110 <memset>
  if(spiHandle->Instance==SPI1)
 800077c:	4b12      	ldr	r3, [pc, #72]	; (80007c8 <HAL_SPI_MspInit+0x5c>)
 800077e:	6822      	ldr	r2, [r4, #0]
 8000780:	429a      	cmp	r2, r3
 8000782:	d001      	beq.n	8000788 <HAL_SPI_MspInit+0x1c>

  /* USER CODE BEGIN SPI1_MspInit 1 */

  /* USER CODE END SPI1_MspInit 1 */
  }
}
 8000784:	b008      	add	sp, #32
 8000786:	bd10      	pop	{r4, pc}
    __HAL_RCC_SPI1_CLK_ENABLE();
 8000788:	2280      	movs	r2, #128	; 0x80
 800078a:	4b10      	ldr	r3, [pc, #64]	; (80007cc <HAL_SPI_MspInit+0x60>)
 800078c:	0152      	lsls	r2, r2, #5
 800078e:	6b59      	ldr	r1, [r3, #52]	; 0x34
    HAL_GPIO_Init(GPIOA, &GPIO_InitStruct);
 8000790:	20a0      	movs	r0, #160	; 0xa0
    __HAL_RCC_SPI1_CLK_ENABLE();
 8000792:	430a      	orrs	r2, r1
 8000794:	635a      	str	r2, [r3, #52]	; 0x34
    __HAL_RCC_GPIOA_CLK_ENABLE();
 8000796:	2201      	movs	r2, #1
 8000798:	6ad9      	ldr	r1, [r3, #44]	; 0x2c
    HAL_GPIO_Init(GPIOA, &GPIO_InitStruct);
 800079a:	05c0      	lsls	r0, r0, #23
    __HAL_RCC_GPIOA_CLK_ENABLE();
 800079c:	4311      	orrs	r1, r2
 800079e:	62d9      	str	r1, [r3, #44]	; 0x2c
 80007a0:	6adb      	ldr	r3, [r3, #44]	; 0x2c
    HAL_GPIO_Init(GPIOA, &GPIO_InitStruct);
 80007a2:	a902      	add	r1, sp, #8
    __HAL_RCC_GPIOA_CLK_ENABLE();
 80007a4:	401a      	ands	r2, r3
 80007a6:	9201      	str	r2, [sp, #4]
    GPIO_InitStruct.Pin = GPIO_PIN_12|GPIO_PIN_11|GPIO_PIN_5;
 80007a8:	22c1      	movs	r2, #193	; 0xc1
    __HAL_RCC_GPIOA_CLK_ENABLE();
 80007aa:	9b01      	ldr	r3, [sp, #4]
    GPIO_InitStruct.Pin = GPIO_PIN_12|GPIO_PIN_11|GPIO_PIN_5;
 80007ac:	2302      	movs	r3, #2
 80007ae:	0152      	lsls	r2, r2, #5
 80007b0:	9202      	str	r2, [sp, #8]
 80007b2:	9303      	str	r3, [sp, #12]
 80007b4:	2200      	movs	r2, #0
 80007b6:	2303      	movs	r3, #3
 80007b8:	9204      	str	r2, [sp, #16]
 80007ba:	9305      	str	r3, [sp, #20]
    GPIO_InitStruct.Alternate = GPIO_AF0_SPI1;
 80007bc:	2300      	movs	r3, #0
 80007be:	9306      	str	r3, [sp, #24]
    HAL_GPIO_Init(GPIOA, &GPIO_InitStruct);
 80007c0:	f000 f9b2 	bl	8000b28 <HAL_GPIO_Init>
}
 80007c4:	e7de      	b.n	8000784 <HAL_SPI_MspInit+0x18>
 80007c6:	46c0      	nop			; (mov r8, r8)
 80007c8:	40013000 	.word	0x40013000
 80007cc:	40021000 	.word	0x40021000

080007d0 <HAL_MspInit>:
{
  /* USER CODE BEGIN MspInit 0 */

  /* USER CODE END MspInit 0 */

  __HAL_RCC_SYSCFG_CLK_ENABLE();
 80007d0:	2101      	movs	r1, #1
 80007d2:	4b05      	ldr	r3, [pc, #20]	; (80007e8 <HAL_MspInit+0x18>)
 80007d4:	6b5a      	ldr	r2, [r3, #52]	; 0x34
 80007d6:	430a      	orrs	r2, r1
 80007d8:	635a      	str	r2, [r3, #52]	; 0x34
  __HAL_RCC_PWR_CLK_ENABLE();
 80007da:	2280      	movs	r2, #128	; 0x80
 80007dc:	6b99      	ldr	r1, [r3, #56]	; 0x38
 80007de:	0552      	lsls	r2, r2, #21
 80007e0:	430a      	orrs	r2, r1
 80007e2:	639a      	str	r2, [r3, #56]	; 0x38
  /* System interrupt init*/

  /* USER CODE BEGIN MspInit 1 */

  /* USER CODE END MspInit 1 */
}
 80007e4:	4770      	bx	lr
 80007e6:	46c0      	nop			; (mov r8, r8)
 80007e8:	40021000 	.word	0x40021000

080007ec <NMI_Handler>:
{
  /* USER CODE BEGIN NonMaskableInt_IRQn 0 */

  /* USER CODE END NonMaskableInt_IRQn 0 */
  /* USER CODE BEGIN NonMaskableInt_IRQn 1 */
  while (1)
 80007ec:	e7fe      	b.n	80007ec <NMI_Handler>
 80007ee:	46c0      	nop			; (mov r8, r8)

080007f0 <HardFault_Handler>:
void HardFault_Handler(void)
{
  /* USER CODE BEGIN HardFault_IRQn 0 */

  /* USER CODE END HardFault_IRQn 0 */
  while (1)
 80007f0:	e7fe      	b.n	80007f0 <HardFault_Handler>
 80007f2:	46c0      	nop			; (mov r8, r8)

080007f4 <SVC_Handler>:

  /* USER CODE END SVC_IRQn 0 */
  /* USER CODE BEGIN SVC_IRQn 1 */

  /* USER CODE END SVC_IRQn 1 */
}
 80007f4:	4770      	bx	lr
 80007f6:	46c0      	nop			; (mov r8, r8)

080007f8 <PendSV_Handler>:
 80007f8:	4770      	bx	lr
 80007fa:	46c0      	nop			; (mov r8, r8)

080007fc <SysTick_Handler>:

/**
  * @brief This function handles System tick timer.
  */
void SysTick_Handler(void)
{
 80007fc:	b510      	push	{r4, lr}
  /* USER CODE BEGIN SysTick_IRQn 0 */

  /* USER CODE END SysTick_IRQn 0 */
  HAL_IncTick();
 80007fe:	f000 f90f 	bl	8000a20 <HAL_IncTick>
  /* USER CODE BEGIN SysTick_IRQn 1 */

  /* USER CODE END SysTick_IRQn 1 */
}
 8000802:	bd10      	pop	{r4, pc}

08000804 <TIM21_IRQHandler>:

/**
  * @brief This function handles TIM21 global interrupt.
  */
void TIM21_IRQHandler(void)
{
 8000804:	b510      	push	{r4, lr}
  /* USER CODE BEGIN TIM21_IRQn 0 */

  /* USER CODE END TIM21_IRQn 0 */
  HAL_TIM_IRQHandler(&htim21);
 8000806:	4802      	ldr	r0, [pc, #8]	; (8000810 <TIM21_IRQHandler+0xc>)
 8000808:	f001 fc14 	bl	8002034 <HAL_TIM_IRQHandler>
  /* USER CODE BEGIN TIM21_IRQn 1 */

  /* USER CODE END TIM21_IRQn 1 */
}
 800080c:	bd10      	pop	{r4, pc}
 800080e:	46c0      	nop			; (mov r8, r8)
 8000810:	20000228 	.word	0x20000228

08000814 <_sbrk>:
void *_sbrk(ptrdiff_t incr)
{
  extern uint8_t _end; /* Symbol defined in the linker script */
  extern uint8_t _estack; /* Symbol defined in the linker script */
  extern uint32_t _Min_Stack_Size; /* Symbol defined in the linker script */
  const uint32_t stack_limit = (uint32_t)&_estack - (uint32_t)&_Min_Stack_Size;
 8000814:	490c      	ldr	r1, [pc, #48]	; (8000848 <_sbrk+0x34>)
 8000816:	4a0d      	ldr	r2, [pc, #52]	; (800084c <_sbrk+0x38>)
{
 8000818:	0003      	movs	r3, r0
  const uint32_t stack_limit = (uint32_t)&_estack - (uint32_t)&_Min_Stack_Size;
 800081a:	1a52      	subs	r2, r2, r1
  const uint8_t *max_heap = (uint8_t *)stack_limit;
  uint8_t *prev_heap_end;

  /* Initialize heap end at first call */
  if (NULL == __sbrk_heap_end)
 800081c:	490c      	ldr	r1, [pc, #48]	; (8000850 <_sbrk+0x3c>)
{
 800081e:	b510      	push	{r4, lr}
  if (NULL == __sbrk_heap_end)
 8000820:	6808      	ldr	r0, [r1, #0]
 8000822:	2800      	cmp	r0, #0
 8000824:	d004      	beq.n	8000830 <_sbrk+0x1c>
  {
    __sbrk_heap_end = &_end;
  }

  /* Protect heap from growing into the reserved MSP stack */
  if (__sbrk_heap_end + incr > max_heap)
 8000826:	18c3      	adds	r3, r0, r3
 8000828:	4293      	cmp	r3, r2
 800082a:	d806      	bhi.n	800083a <_sbrk+0x26>
    errno = ENOMEM;
    return (void *)-1;
  }

  prev_heap_end = __sbrk_heap_end;
  __sbrk_heap_end += incr;
 800082c:	600b      	str	r3, [r1, #0]

  return (void *)prev_heap_end;
}
 800082e:	bd10      	pop	{r4, pc}
    __sbrk_heap_end = &_end;
 8000830:	4808      	ldr	r0, [pc, #32]	; (8000854 <_sbrk+0x40>)
  if (__sbrk_heap_end + incr > max_heap)
 8000832:	18c3      	adds	r3, r0, r3
    __sbrk_heap_end = &_end;
 8000834:	6008      	str	r0, [r1, #0]
  if (__sbrk_heap_end + incr > max_heap)
 8000836:	4293      	cmp	r3, r2
 8000838:	d9f8      	bls.n	800082c <_sbrk+0x18>
    errno = ENOMEM;
 800083a:	f002 fc35 	bl	80030a8 <__errno>
 800083e:	230c      	movs	r3, #12
 8000840:	6003      	str	r3, [r0, #0]
    return (void *)-1;
 8000842:	2001      	movs	r0, #1
 8000844:	4240      	negs	r0, r0
 8000846:	e7f2      	b.n	800082e <_sbrk+0x1a>
 8000848:	00000400 	.word	0x00000400
 800084c:	20002000 	.word	0x20002000
 8000850:	2000008c 	.word	0x2000008c
 8000854:	20000280 	.word	0x20000280

08000858 <SystemInit>:
{
  /* Configure the Vector Table location add offset address ------------------*/
#if defined (USER_VECT_TAB_ADDRESS)
  SCB->VTOR = VECT_TAB_BASE_ADDRESS | VECT_TAB_OFFSET; /* Vector Table Relocation in Internal SRAM */
#endif /* USER_VECT_TAB_ADDRESS */
}
 8000858:	4770      	bx	lr
 800085a:	46c0      	nop			; (mov r8, r8)

0800085c <MX_TIM21_Init>:

TIM_HandleTypeDef htim21;

/* TIM21 init function */
void MX_TIM21_Init(void)
{
 800085c:	b510      	push	{r4, lr}
 800085e:	b086      	sub	sp, #24

  /* USER CODE BEGIN TIM21_Init 0 */

  /* USER CODE END TIM21_Init 0 */

  TIM_ClockConfigTypeDef sClockSourceConfig = {0};
 8000860:	2210      	movs	r2, #16
 8000862:	2100      	movs	r1, #0
 8000864:	a802      	add	r0, sp, #8
 8000866:	f002 fc53 	bl	8003110 <memset>
  TIM_MasterConfigTypeDef sMasterConfig = {0};
 800086a:	2208      	movs	r2, #8
 800086c:	2100      	movs	r1, #0
 800086e:	4668      	mov	r0, sp
 8000870:	f002 fc4e 	bl	8003110 <memset>

  /* USER CODE BEGIN TIM21_Init 1 */

  /* USER CODE END TIM21_Init 1 */
  htim21.Instance = TIM21;
 8000874:	4c19      	ldr	r4, [pc, #100]	; (80008dc <MX_TIM21_Init+0x80>)
 8000876:	4b1a      	ldr	r3, [pc, #104]	; (80008e0 <MX_TIM21_Init+0x84>)
  htim21.Init.Prescaler = 0;
  htim21.Init.CounterMode = TIM_COUNTERMODE_UP;
  htim21.Init.Period = 65535;
 8000878:	4a1a      	ldr	r2, [pc, #104]	; (80008e4 <MX_TIM21_Init+0x88>)
  htim21.Instance = TIM21;
 800087a:	6023      	str	r3, [r4, #0]
  htim21.Init.Prescaler = 0;
 800087c:	2300      	movs	r3, #0
  htim21.Init.ClockDivision = TIM_CLOCKDIVISION_DIV1;
  htim21.Init.AutoReloadPreload = TIM_AUTORELOAD_PRELOAD_ENABLE;
  if (HAL_TIM_Base_Init(&htim21) != HAL_OK)
 800087e:	0020      	movs	r0, r4
  htim21.Init.Prescaler = 0;
 8000880:	6063      	str	r3, [r4, #4]
  htim21.Init.CounterMode = TIM_COUNTERMODE_UP;
 8000882:	60a3      	str	r3, [r4, #8]
  htim21.Init.ClockDivision = TIM_CLOCKDIVISION_DIV1;
 8000884:	6123      	str	r3, [r4, #16]
  htim21.Init.AutoReloadPreload = TIM_AUTORELOAD_PRELOAD_ENABLE;
 8000886:	3380      	adds	r3, #128	; 0x80
  htim21.Init.Period = 65535;
 8000888:	60e2      	str	r2, [r4, #12]
  htim21.Init.AutoReloadPreload = TIM_AUTORELOAD_PRELOAD_ENABLE;
 800088a:	6163      	str	r3, [r4, #20]
  if (HAL_TIM_Base_Init(&htim21) != HAL_OK)
 800088c:	f001 fab0 	bl	8001df0 <HAL_TIM_Base_Init>
 8000890:	2800      	cmp	r0, #0
 8000892:	d11a      	bne.n	80008ca <MX_TIM21_Init+0x6e>
  {
    Error_Handler();
  }
  sClockSourceConfig.ClockSource = TIM_CLOCKSOURCE_ETRMODE2;
 8000894:	2280      	movs	r2, #128	; 0x80
 8000896:	2300      	movs	r3, #0
 8000898:	0192      	lsls	r2, r2, #6
 800089a:	9202      	str	r2, [sp, #8]
 800089c:	9303      	str	r3, [sp, #12]
 800089e:	2200      	movs	r2, #0
 80008a0:	2300      	movs	r3, #0
  sClockSourceConfig.ClockPolarity = TIM_CLOCKPOLARITY_NONINVERTED;
  sClockSourceConfig.ClockPrescaler = TIM_CLOCKPRESCALER_DIV1;
  sClockSourceConfig.ClockFilter = 0;
  if (HAL_TIM_ConfigClockSource(&htim21, &sClockSourceConfig) != HAL_OK)
 80008a2:	0020      	movs	r0, r4
 80008a4:	a902      	add	r1, sp, #8
  sClockSourceConfig.ClockSource = TIM_CLOCKSOURCE_ETRMODE2;
 80008a6:	9204      	str	r2, [sp, #16]
 80008a8:	9305      	str	r3, [sp, #20]
  if (HAL_TIM_ConfigClockSource(&htim21, &sClockSourceConfig) != HAL_OK)
 80008aa:	f001 fb13 	bl	8001ed4 <HAL_TIM_ConfigClockSource>
 80008ae:	2800      	cmp	r0, #0
 80008b0:	d111      	bne.n	80008d6 <MX_TIM21_Init+0x7a>
  {
    Error_Handler();
  }
  sMasterConfig.MasterOutputTrigger = TIM_TRGO_RESET;
 80008b2:	2200      	movs	r2, #0
 80008b4:	2300      	movs	r3, #0
  sMasterConfig.MasterSlaveMode = TIM_MASTERSLAVEMODE_DISABLE;
  if (HAL_TIMEx_MasterConfigSynchronization(&htim21, &sMasterConfig) != HAL_OK)
 80008b6:	4669      	mov	r1, sp
 80008b8:	0020      	movs	r0, r4
  sMasterConfig.MasterOutputTrigger = TIM_TRGO_RESET;
 80008ba:	9200      	str	r2, [sp, #0]
 80008bc:	9301      	str	r3, [sp, #4]
  if (HAL_TIMEx_MasterConfigSynchronization(&htim21, &sMasterConfig) != HAL_OK)
 80008be:	f001 fc47 	bl	8002150 <HAL_TIMEx_MasterConfigSynchronization>
 80008c2:	2800      	cmp	r0, #0
 80008c4:	d104      	bne.n	80008d0 <MX_TIM21_Init+0x74>
  }
  /* USER CODE BEGIN TIM21_Init 2 */

  /* USER CODE END TIM21_Init 2 */

}
 80008c6:	b006      	add	sp, #24
 80008c8:	bd10      	pop	{r4, pc}
    Error_Handler();
 80008ca:	f7ff ff27 	bl	800071c <Error_Handler>
 80008ce:	e7e1      	b.n	8000894 <MX_TIM21_Init+0x38>
    Error_Handler();
 80008d0:	f7ff ff24 	bl	800071c <Error_Handler>
}
 80008d4:	e7f7      	b.n	80008c6 <MX_TIM21_Init+0x6a>
    Error_Handler();
 80008d6:	f7ff ff21 	bl	800071c <Error_Handler>
 80008da:	e7ea      	b.n	80008b2 <MX_TIM21_Init+0x56>
 80008dc:	20000228 	.word	0x20000228
 80008e0:	40010800 	.word	0x40010800
 80008e4:	0000ffff 	.word	0x0000ffff

080008e8 <HAL_TIM_Base_MspInit>:

void HAL_TIM_Base_MspInit(TIM_HandleTypeDef* tim_baseHandle)
{
 80008e8:	b510      	push	{r4, lr}
 80008ea:	0004      	movs	r4, r0
 80008ec:	b088      	sub	sp, #32

  GPIO_InitTypeDef GPIO_InitStruct = {0};
 80008ee:	2214      	movs	r2, #20
 80008f0:	2100      	movs	r1, #0
 80008f2:	a802      	add	r0, sp, #8
 80008f4:	f002 fc0c 	bl	8003110 <memset>
  if(tim_baseHandle->Instance==TIM21)
 80008f8:	4b15      	ldr	r3, [pc, #84]	; (8000950 <HAL_TIM_Base_MspInit+0x68>)
 80008fa:	6822      	ldr	r2, [r4, #0]
 80008fc:	429a      	cmp	r2, r3
 80008fe:	d001      	beq.n	8000904 <HAL_TIM_Base_MspInit+0x1c>
    HAL_NVIC_EnableIRQ(TIM21_IRQn);
  /* USER CODE BEGIN TIM21_MspInit 1 */

  /* USER CODE END TIM21_MspInit 1 */
  }
}
 8000900:	b008      	add	sp, #32
 8000902:	bd10      	pop	{r4, pc}
    __HAL_RCC_TIM21_CLK_ENABLE();
 8000904:	2104      	movs	r1, #4
 8000906:	4b13      	ldr	r3, [pc, #76]	; (8000954 <HAL_TIM_Base_MspInit+0x6c>)
    HAL_GPIO_Init(GPIOA, &GPIO_InitStruct);
 8000908:	20a0      	movs	r0, #160	; 0xa0
    __HAL_RCC_TIM21_CLK_ENABLE();
 800090a:	6b5a      	ldr	r2, [r3, #52]	; 0x34
    HAL_GPIO_Init(GPIOA, &GPIO_InitStruct);
 800090c:	05c0      	lsls	r0, r0, #23
    __HAL_RCC_TIM21_CLK_ENABLE();
 800090e:	430a      	orrs	r2, r1
 8000910:	635a      	str	r2, [r3, #52]	; 0x34
    __HAL_RCC_GPIOA_CLK_ENABLE();
 8000912:	2201      	movs	r2, #1
 8000914:	6ad9      	ldr	r1, [r3, #44]	; 0x2c
 8000916:	4311      	orrs	r1, r2
 8000918:	62d9      	str	r1, [r3, #44]	; 0x2c
 800091a:	6adb      	ldr	r3, [r3, #44]	; 0x2c
    HAL_GPIO_Init(GPIOA, &GPIO_InitStruct);
 800091c:	a902      	add	r1, sp, #8
    __HAL_RCC_GPIOA_CLK_ENABLE();
 800091e:	401a      	ands	r2, r3
 8000920:	9201      	str	r2, [sp, #4]
 8000922:	9b01      	ldr	r3, [sp, #4]
    GPIO_InitStruct.Pin = GPIO_PIN_1;
 8000924:	2202      	movs	r2, #2
 8000926:	2302      	movs	r3, #2
 8000928:	9202      	str	r2, [sp, #8]
 800092a:	9303      	str	r3, [sp, #12]
 800092c:	2200      	movs	r2, #0
 800092e:	2300      	movs	r3, #0
 8000930:	9204      	str	r2, [sp, #16]
 8000932:	9305      	str	r3, [sp, #20]
    GPIO_InitStruct.Alternate = GPIO_AF5_TIM21;
 8000934:	2305      	movs	r3, #5
 8000936:	9306      	str	r3, [sp, #24]
    HAL_GPIO_Init(GPIOA, &GPIO_InitStruct);
 8000938:	f000 f8f6 	bl	8000b28 <HAL_GPIO_Init>
    HAL_NVIC_SetPriority(TIM21_IRQn, 0, 0);
 800093c:	2200      	movs	r2, #0
 800093e:	2100      	movs	r1, #0
 8000940:	2014      	movs	r0, #20
 8000942:	f000 f899 	bl	8000a78 <HAL_NVIC_SetPriority>
    HAL_NVIC_EnableIRQ(TIM21_IRQn);
 8000946:	2014      	movs	r0, #20
 8000948:	f000 f8c8 	bl	8000adc <HAL_NVIC_EnableIRQ>
}
 800094c:	e7d8      	b.n	8000900 <HAL_TIM_Base_MspInit+0x18>
 800094e:	46c0      	nop			; (mov r8, r8)
 8000950:	40010800 	.word	0x40010800
 8000954:	40021000 	.word	0x40021000

08000958 <Reset_Handler>:

    .section  .text.Reset_Handler
  .weak  Reset_Handler
  .type  Reset_Handler, %function
Reset_Handler:  
   ldr   r0, =_estack
 8000958:	480d      	ldr	r0, [pc, #52]	; (8000990 <LoopForever+0x2>)
   mov   sp, r0          /* set stack pointer */
 800095a:	4685      	mov	sp, r0

/* Copy the data segment initializers from flash to SRAM */
  ldr r0, =_sdata
 800095c:	480d      	ldr	r0, [pc, #52]	; (8000994 <LoopForever+0x6>)
  ldr r1, =_edata
 800095e:	490e      	ldr	r1, [pc, #56]	; (8000998 <LoopForever+0xa>)
  ldr r2, =_sidata
 8000960:	4a0e      	ldr	r2, [pc, #56]	; (800099c <LoopForever+0xe>)
  movs r3, #0
 8000962:	2300      	movs	r3, #0
  b LoopCopyDataInit
 8000964:	e002      	b.n	800096c <LoopCopyDataInit>

08000966 <CopyDataInit>:

CopyDataInit:
  ldr r4, [r2, r3]
 8000966:	58d4      	ldr	r4, [r2, r3]
  str r4, [r0, r3]
 8000968:	50c4      	str	r4, [r0, r3]
  adds r3, r3, #4
 800096a:	3304      	adds	r3, #4

0800096c <LoopCopyDataInit>:

LoopCopyDataInit:
  adds r4, r0, r3
 800096c:	18c4      	adds	r4, r0, r3
  cmp r4, r1
 800096e:	428c      	cmp	r4, r1
  bcc CopyDataInit
 8000970:	d3f9      	bcc.n	8000966 <CopyDataInit>
  
/* Zero fill the bss segment. */
  ldr r2, =_sbss
 8000972:	4a0b      	ldr	r2, [pc, #44]	; (80009a0 <LoopForever+0x12>)
  ldr r4, =_ebss
 8000974:	4c0b      	ldr	r4, [pc, #44]	; (80009a4 <LoopForever+0x16>)
  movs r3, #0
 8000976:	2300      	movs	r3, #0
  b LoopFillZerobss
 8000978:	e001      	b.n	800097e <LoopFillZerobss>

0800097a <FillZerobss>:

FillZerobss:
  str  r3, [r2]
 800097a:	6013      	str	r3, [r2, #0]
  adds r2, r2, #4
 800097c:	3204      	adds	r2, #4

0800097e <LoopFillZerobss>:

LoopFillZerobss:
  cmp r2, r4
 800097e:	42a2      	cmp	r2, r4
  bcc FillZerobss
 8000980:	d3fb      	bcc.n	800097a <FillZerobss>

/* Call the clock system intitialization function.*/
  bl  SystemInit
 8000982:	f7ff ff69 	bl	8000858 <SystemInit>
/* Call static constructors */
    bl __libc_init_array
 8000986:	f002 fb95 	bl	80030b4 <__libc_init_array>
/* Call the application's entry point.*/
  bl  main
 800098a:	f7ff feaf 	bl	80006ec <main>

0800098e <LoopForever>:

LoopForever:
    b LoopForever
 800098e:	e7fe      	b.n	800098e <LoopForever>
   ldr   r0, =_estack
 8000990:	20002000 	.word	0x20002000
  ldr r0, =_sdata
 8000994:	20000000 	.word	0x20000000
  ldr r1, =_edata
 8000998:	20000070 	.word	0x20000070
  ldr r2, =_sidata
 800099c:	080033e4 	.word	0x080033e4
  ldr r2, =_sbss
 80009a0:	20000070 	.word	0x20000070
  ldr r4, =_ebss
 80009a4:	2000027c 	.word	0x2000027c

080009a8 <ADC1_COMP_IRQHandler>:
 * @retval : None
*/
    .section  .text.Default_Handler,"ax",%progbits
Default_Handler:
Infinite_Loop:
  b  Infinite_Loop
 80009a8:	e7fe      	b.n	80009a8 <ADC1_COMP_IRQHandler>
	...

080009ac <HAL_InitTick>:
  *       implementation  in user file.
  * @param TickPriority Tick interrupt priority.
  * @retval HAL status
  */
__weak HAL_StatusTypeDef HAL_InitTick(uint32_t TickPriority)
{
 80009ac:	b510      	push	{r4, lr}
 80009ae:	0004      	movs	r4, r0
  /* Configure the SysTick to have interrupt in 1ms time basis*/
  if (HAL_SYSTICK_Config(SystemCoreClock / (1000U / uwTickFreq)) > 0U)
 80009b0:	20fa      	movs	r0, #250	; 0xfa
 80009b2:	4b0e      	ldr	r3, [pc, #56]	; (80009ec <HAL_InitTick+0x40>)
 80009b4:	0080      	lsls	r0, r0, #2
 80009b6:	7819      	ldrb	r1, [r3, #0]
 80009b8:	f7ff fba6 	bl	8000108 <__udivsi3>
 80009bc:	4b0c      	ldr	r3, [pc, #48]	; (80009f0 <HAL_InitTick+0x44>)
 80009be:	0001      	movs	r1, r0
 80009c0:	6818      	ldr	r0, [r3, #0]
 80009c2:	f7ff fba1 	bl	8000108 <__udivsi3>
 80009c6:	f000 f895 	bl	8000af4 <HAL_SYSTICK_Config>
 80009ca:	2800      	cmp	r0, #0
 80009cc:	d10c      	bne.n	80009e8 <HAL_InitTick+0x3c>
  {
    return HAL_ERROR;
 80009ce:	3001      	adds	r0, #1
  }

  /* Configure the SysTick IRQ priority */
  if (TickPriority < (1UL << __NVIC_PRIO_BITS))
 80009d0:	2c03      	cmp	r4, #3
 80009d2:	d900      	bls.n	80009d6 <HAL_InitTick+0x2a>
    return HAL_ERROR;
  }

  /* Return function status */
  return HAL_OK;
}
 80009d4:	bd10      	pop	{r4, pc}
    HAL_NVIC_SetPriority(SysTick_IRQn, TickPriority, 0U);
 80009d6:	3802      	subs	r0, #2
 80009d8:	2200      	movs	r2, #0
 80009da:	0021      	movs	r1, r4
 80009dc:	f000 f84c 	bl	8000a78 <HAL_NVIC_SetPriority>
    uwTickPrio = TickPriority;
 80009e0:	4b04      	ldr	r3, [pc, #16]	; (80009f4 <HAL_InitTick+0x48>)
 80009e2:	2000      	movs	r0, #0
 80009e4:	601c      	str	r4, [r3, #0]
  return HAL_OK;
 80009e6:	e7f5      	b.n	80009d4 <HAL_InitTick+0x28>
    return HAL_ERROR;
 80009e8:	2001      	movs	r0, #1
 80009ea:	e7f3      	b.n	80009d4 <HAL_InitTick+0x28>
 80009ec:	20000004 	.word	0x20000004
 80009f0:	20000000 	.word	0x20000000
 80009f4:	20000008 	.word	0x20000008

080009f8 <HAL_Init>:
  __HAL_FLASH_PREREAD_BUFFER_ENABLE();
 80009f8:	2140      	movs	r1, #64	; 0x40
 80009fa:	4a08      	ldr	r2, [pc, #32]	; (8000a1c <HAL_Init+0x24>)
{
 80009fc:	b510      	push	{r4, lr}
  __HAL_FLASH_PREREAD_BUFFER_ENABLE();
 80009fe:	6813      	ldr	r3, [r2, #0]
  if (HAL_InitTick(TICK_INT_PRIORITY) != HAL_OK)
 8000a00:	2000      	movs	r0, #0
  __HAL_FLASH_PREREAD_BUFFER_ENABLE();
 8000a02:	430b      	orrs	r3, r1
 8000a04:	6013      	str	r3, [r2, #0]
  if (HAL_InitTick(TICK_INT_PRIORITY) != HAL_OK)
 8000a06:	f7ff ffd1 	bl	80009ac <HAL_InitTick>
 8000a0a:	1e04      	subs	r4, r0, #0
 8000a0c:	d002      	beq.n	8000a14 <HAL_Init+0x1c>
    status = HAL_ERROR;
 8000a0e:	2401      	movs	r4, #1
}
 8000a10:	0020      	movs	r0, r4
 8000a12:	bd10      	pop	{r4, pc}
    HAL_MspInit();
 8000a14:	f7ff fedc 	bl	80007d0 <HAL_MspInit>
 8000a18:	e7fa      	b.n	8000a10 <HAL_Init+0x18>
 8000a1a:	46c0      	nop			; (mov r8, r8)
 8000a1c:	40022000 	.word	0x40022000

08000a20 <HAL_IncTick>:
  *      implementations in user file.
  * @retval None
  */
__weak void HAL_IncTick(void)
{
  uwTick += uwTickFreq;
 8000a20:	4a03      	ldr	r2, [pc, #12]	; (8000a30 <HAL_IncTick+0x10>)
 8000a22:	4b04      	ldr	r3, [pc, #16]	; (8000a34 <HAL_IncTick+0x14>)
 8000a24:	6811      	ldr	r1, [r2, #0]
 8000a26:	781b      	ldrb	r3, [r3, #0]
 8000a28:	185b      	adds	r3, r3, r1
 8000a2a:	6013      	str	r3, [r2, #0]
}
 8000a2c:	4770      	bx	lr
 8000a2e:	46c0      	nop			; (mov r8, r8)
 8000a30:	20000268 	.word	0x20000268
 8000a34:	20000004 	.word	0x20000004

08000a38 <HAL_GetTick>:
  *       implementations in user file.
  * @retval tick value
  */
__weak uint32_t HAL_GetTick(void)
{
  return uwTick;
 8000a38:	4b01      	ldr	r3, [pc, #4]	; (8000a40 <HAL_GetTick+0x8>)
 8000a3a:	6818      	ldr	r0, [r3, #0]
}
 8000a3c:	4770      	bx	lr
 8000a3e:	46c0      	nop			; (mov r8, r8)
 8000a40:	20000268 	.word	0x20000268

08000a44 <HAL_Delay>:
  *       implementations in user file.
  * @param Delay specifies the delay time length, in milliseconds.
  * @retval None
  */
__weak void HAL_Delay(uint32_t Delay)
{
 8000a44:	b570      	push	{r4, r5, r6, lr}
 8000a46:	0004      	movs	r4, r0
  uint32_t tickstart = HAL_GetTick();
 8000a48:	f7ff fff6 	bl	8000a38 <HAL_GetTick>
 8000a4c:	0005      	movs	r5, r0
  uint32_t wait = Delay;

  /* Add a freq to guarantee minimum wait */
  if (wait < HAL_MAX_DELAY)
 8000a4e:	1c63      	adds	r3, r4, #1
 8000a50:	d002      	beq.n	8000a58 <HAL_Delay+0x14>
  {
    wait += (uint32_t)(uwTickFreq);
 8000a52:	4b04      	ldr	r3, [pc, #16]	; (8000a64 <HAL_Delay+0x20>)
 8000a54:	781b      	ldrb	r3, [r3, #0]
 8000a56:	18e4      	adds	r4, r4, r3
  }

  while((HAL_GetTick() - tickstart) < wait)
 8000a58:	f7ff ffee 	bl	8000a38 <HAL_GetTick>
 8000a5c:	1b40      	subs	r0, r0, r5
 8000a5e:	42a0      	cmp	r0, r4
 8000a60:	d3fa      	bcc.n	8000a58 <HAL_Delay+0x14>
  {
  }
}
 8000a62:	bd70      	pop	{r4, r5, r6, pc}
 8000a64:	20000004 	.word	0x20000004

08000a68 <HAL_SuspendTick>:
  * @retval None
  */
__weak void HAL_SuspendTick(void)
{
  /* Disable SysTick Interrupt */
  SysTick->CTRL &= ~SysTick_CTRL_TICKINT_Msk;
 8000a68:	2102      	movs	r1, #2
 8000a6a:	4a02      	ldr	r2, [pc, #8]	; (8000a74 <HAL_SuspendTick+0xc>)
 8000a6c:	6813      	ldr	r3, [r2, #0]
 8000a6e:	438b      	bics	r3, r1
 8000a70:	6013      	str	r3, [r2, #0]
}
 8000a72:	4770      	bx	lr
 8000a74:	e000e010 	.word	0xe000e010

08000a78 <HAL_NVIC_SetPriority>:
  *         with stm32l0xx devices, this parameter is a dummy value and it is ignored, because 
  *         no subpriority supported in Cortex M0+ based products.   
  * @retval None
  */
void HAL_NVIC_SetPriority(IRQn_Type IRQn, uint32_t PreemptPriority, uint32_t SubPriority)
{ 
 8000a78:	b570      	push	{r4, r5, r6, lr}
  \param [in]  priority  Priority to set.
  \note    The priority cannot be set for every processor exception.
 */
__STATIC_INLINE void __NVIC_SetPriority(IRQn_Type IRQn, uint32_t priority)
{
  if ((int32_t)(IRQn) >= 0)
 8000a7a:	2800      	cmp	r0, #0
 8000a7c:	db14      	blt.n	8000aa8 <HAL_NVIC_SetPriority+0x30>
  {
    NVIC->IP[_IP_IDX(IRQn)]  = ((uint32_t)(NVIC->IP[_IP_IDX(IRQn)]  & ~(0xFFUL << _BIT_SHIFT(IRQn))) |
 8000a7e:	4b15      	ldr	r3, [pc, #84]	; (8000ad4 <HAL_NVIC_SetPriority+0x5c>)
 8000a80:	2203      	movs	r2, #3
 8000a82:	469c      	mov	ip, r3
 8000a84:	23ff      	movs	r3, #255	; 0xff
 8000a86:	0884      	lsrs	r4, r0, #2
 8000a88:	4010      	ands	r0, r2
 8000a8a:	001a      	movs	r2, r3
 8000a8c:	26c0      	movs	r6, #192	; 0xc0
 8000a8e:	00c0      	lsls	r0, r0, #3
       (((priority << (8U - __NVIC_PRIO_BITS)) & (uint32_t)0xFFUL) << _BIT_SHIFT(IRQn)));
 8000a90:	0189      	lsls	r1, r1, #6
    NVIC->IP[_IP_IDX(IRQn)]  = ((uint32_t)(NVIC->IP[_IP_IDX(IRQn)]  & ~(0xFFUL << _BIT_SHIFT(IRQn))) |
 8000a92:	4082      	lsls	r2, r0
       (((priority << (8U - __NVIC_PRIO_BITS)) & (uint32_t)0xFFUL) << _BIT_SHIFT(IRQn)));
 8000a94:	400b      	ands	r3, r1
 8000a96:	4083      	lsls	r3, r0
 8000a98:	00a4      	lsls	r4, r4, #2
 8000a9a:	4464      	add	r4, ip
    NVIC->IP[_IP_IDX(IRQn)]  = ((uint32_t)(NVIC->IP[_IP_IDX(IRQn)]  & ~(0xFFUL << _BIT_SHIFT(IRQn))) |
 8000a9c:	00b6      	lsls	r6, r6, #2
 8000a9e:	59a5      	ldr	r5, [r4, r6]
 8000aa0:	4395      	bics	r5, r2
 8000aa2:	432b      	orrs	r3, r5
 8000aa4:	51a3      	str	r3, [r4, r6]
    /* Check the parameters */
  assert_param(IS_NVIC_PREEMPTION_PRIORITY(PreemptPriority));
  NVIC_SetPriority(IRQn,PreemptPriority);
}
 8000aa6:	bd70      	pop	{r4, r5, r6, pc}
  }
  else
  {
    SCB->SHP[_SHP_IDX(IRQn)] = ((uint32_t)(SCB->SHP[_SHP_IDX(IRQn)] & ~(0xFFUL << _BIT_SHIFT(IRQn))) |
 8000aa8:	4a0b      	ldr	r2, [pc, #44]	; (8000ad8 <HAL_NVIC_SetPriority+0x60>)
 8000aaa:	230f      	movs	r3, #15
 8000aac:	4694      	mov	ip, r2
 8000aae:	2203      	movs	r2, #3
 8000ab0:	4003      	ands	r3, r0
 8000ab2:	4010      	ands	r0, r2
 8000ab4:	32fc      	adds	r2, #252	; 0xfc
 8000ab6:	0015      	movs	r5, r2
 8000ab8:	00c0      	lsls	r0, r0, #3
       (((priority << (8U - __NVIC_PRIO_BITS)) & (uint32_t)0xFFUL) << _BIT_SHIFT(IRQn)));
 8000aba:	0189      	lsls	r1, r1, #6
    SCB->SHP[_SHP_IDX(IRQn)] = ((uint32_t)(SCB->SHP[_SHP_IDX(IRQn)] & ~(0xFFUL << _BIT_SHIFT(IRQn))) |
 8000abc:	4085      	lsls	r5, r0
       (((priority << (8U - __NVIC_PRIO_BITS)) & (uint32_t)0xFFUL) << _BIT_SHIFT(IRQn)));
 8000abe:	400a      	ands	r2, r1
 8000ac0:	4082      	lsls	r2, r0
    SCB->SHP[_SHP_IDX(IRQn)] = ((uint32_t)(SCB->SHP[_SHP_IDX(IRQn)] & ~(0xFFUL << _BIT_SHIFT(IRQn))) |
 8000ac2:	3b08      	subs	r3, #8
 8000ac4:	089b      	lsrs	r3, r3, #2
 8000ac6:	009b      	lsls	r3, r3, #2
 8000ac8:	4463      	add	r3, ip
 8000aca:	69dc      	ldr	r4, [r3, #28]
 8000acc:	43ac      	bics	r4, r5
 8000ace:	4322      	orrs	r2, r4
 8000ad0:	61da      	str	r2, [r3, #28]
 8000ad2:	e7e8      	b.n	8000aa6 <HAL_NVIC_SetPriority+0x2e>
 8000ad4:	e000e100 	.word	0xe000e100
 8000ad8:	e000ed00 	.word	0xe000ed00

08000adc <HAL_NVIC_EnableIRQ>:
  if ((int32_t)(IRQn) >= 0)
 8000adc:	2800      	cmp	r0, #0
 8000ade:	db05      	blt.n	8000aec <HAL_NVIC_EnableIRQ+0x10>
    NVIC->ISER[0U] = (uint32_t)(1UL << (((uint32_t)IRQn) & 0x1FUL));
 8000ae0:	231f      	movs	r3, #31
 8000ae2:	4018      	ands	r0, r3
 8000ae4:	3b1e      	subs	r3, #30
 8000ae6:	4083      	lsls	r3, r0
 8000ae8:	4a01      	ldr	r2, [pc, #4]	; (8000af0 <HAL_NVIC_EnableIRQ+0x14>)
 8000aea:	6013      	str	r3, [r2, #0]
  /* Check the parameters */
  assert_param(IS_NVIC_DEVICE_IRQ(IRQn));
  
  /* Enable interrupt */
  NVIC_EnableIRQ(IRQn);
}
 8000aec:	4770      	bx	lr
 8000aee:	46c0      	nop			; (mov r8, r8)
 8000af0:	e000e100 	.word	0xe000e100

08000af4 <HAL_SYSTICK_Config>:
           function <b>SysTick_Config</b> is not included. In this case, the file <b><i>device</i>.h</b>
           must contain a vendor-specific implementation of this function.
 */
__STATIC_INLINE uint32_t SysTick_Config(uint32_t ticks)
{
  if ((ticks - 1UL) > SysTick_LOAD_RELOAD_Msk)
 8000af4:	2280      	movs	r2, #128	; 0x80
 8000af6:	1e43      	subs	r3, r0, #1
 8000af8:	0452      	lsls	r2, r2, #17
  {
    return (1UL);                                                   /* Reload value impossible */
 8000afa:	2001      	movs	r0, #1
  if ((ticks - 1UL) > SysTick_LOAD_RELOAD_Msk)
 8000afc:	4293      	cmp	r3, r2
 8000afe:	d20e      	bcs.n	8000b1e <HAL_SYSTICK_Config+0x2a>
    SCB->SHP[_SHP_IDX(IRQn)] = ((uint32_t)(SCB->SHP[_SHP_IDX(IRQn)] & ~(0xFFUL << _BIT_SHIFT(IRQn))) |
 8000b00:	21c0      	movs	r1, #192	; 0xc0
  }

  SysTick->LOAD  = (uint32_t)(ticks - 1UL);                         /* set reload register */
 8000b02:	4a07      	ldr	r2, [pc, #28]	; (8000b20 <HAL_SYSTICK_Config+0x2c>)
    SCB->SHP[_SHP_IDX(IRQn)] = ((uint32_t)(SCB->SHP[_SHP_IDX(IRQn)] & ~(0xFFUL << _BIT_SHIFT(IRQn))) |
 8000b04:	4807      	ldr	r0, [pc, #28]	; (8000b24 <HAL_SYSTICK_Config+0x30>)
  SysTick->LOAD  = (uint32_t)(ticks - 1UL);                         /* set reload register */
 8000b06:	6053      	str	r3, [r2, #4]
    SCB->SHP[_SHP_IDX(IRQn)] = ((uint32_t)(SCB->SHP[_SHP_IDX(IRQn)] & ~(0xFFUL << _BIT_SHIFT(IRQn))) |
 8000b08:	6a03      	ldr	r3, [r0, #32]
 8000b0a:	0609      	lsls	r1, r1, #24
 8000b0c:	021b      	lsls	r3, r3, #8
 8000b0e:	0a1b      	lsrs	r3, r3, #8
 8000b10:	430b      	orrs	r3, r1
 8000b12:	6203      	str	r3, [r0, #32]
  NVIC_SetPriority (SysTick_IRQn, (1UL << __NVIC_PRIO_BITS) - 1UL); /* set Priority for Systick Interrupt */
  SysTick->VAL   = 0UL;                                             /* Load the SysTick Counter Value */
 8000b14:	2300      	movs	r3, #0
  SysTick->CTRL  = SysTick_CTRL_CLKSOURCE_Msk |
                   SysTick_CTRL_TICKINT_Msk   |
                   SysTick_CTRL_ENABLE_Msk;                         /* Enable SysTick IRQ and SysTick Timer */
  return (0UL);                                                     /* Function successful */
 8000b16:	2000      	movs	r0, #0
  SysTick->VAL   = 0UL;                                             /* Load the SysTick Counter Value */
 8000b18:	6093      	str	r3, [r2, #8]
  SysTick->CTRL  = SysTick_CTRL_CLKSOURCE_Msk |
 8000b1a:	3307      	adds	r3, #7
 8000b1c:	6013      	str	r3, [r2, #0]
  *                  - 1  Function failed.
  */
uint32_t HAL_SYSTICK_Config(uint32_t TicksNumb)
{
   return SysTick_Config(TicksNumb);
}
 8000b1e:	4770      	bx	lr
 8000b20:	e000e010 	.word	0xe000e010
 8000b24:	e000ed00 	.word	0xe000ed00

08000b28 <HAL_GPIO_Init>:
  assert_param(IS_GPIO_MODE(GPIO_Init->Mode));
  assert_param(IS_GPIO_PULL(GPIO_Init->Pull));
  assert_param(IS_GPIO_PIN_AVAILABLE(GPIOx, (GPIO_Init->Pin)));

  /* Configure the port pins */
  while (((GPIO_Init->Pin) >> position) != 0)
 8000b28:	680b      	ldr	r3, [r1, #0]
{
 8000b2a:	b5f0      	push	{r4, r5, r6, r7, lr}
 8000b2c:	464e      	mov	r6, r9
  while (((GPIO_Init->Pin) >> position) != 0)
 8000b2e:	4699      	mov	r9, r3
{
 8000b30:	46de      	mov	lr, fp
 8000b32:	4657      	mov	r7, sl
 8000b34:	4645      	mov	r5, r8
  while (((GPIO_Init->Pin) >> position) != 0)
 8000b36:	464a      	mov	r2, r9
{
 8000b38:	b5e0      	push	{r5, r6, r7, lr}
  uint32_t position = 0x00U;
 8000b3a:	2300      	movs	r3, #0
{
 8000b3c:	b085      	sub	sp, #20
  while (((GPIO_Init->Pin) >> position) != 0)
 8000b3e:	2a00      	cmp	r2, #0
 8000b40:	d07a      	beq.n	8000c38 <HAL_GPIO_Init+0x110>
  {
    /* Get the IO position */
    iocurrent = (GPIO_Init->Pin) & (1U << position);
 8000b42:	2201      	movs	r2, #1
 8000b44:	4692      	mov	sl, r2
      /*--------------------- EXTI Mode Configuration ------------------------*/
      /* Configure the External Interrupt or event for the current IO */
      if ((GPIO_Init->Mode & EXTI_MODE) == EXTI_MODE)
      {
        /* Enable SYSCFG Clock */
        __HAL_RCC_SYSCFG_CLK_ENABLE();
 8000b46:	4a69      	ldr	r2, [pc, #420]	; (8000cec <HAL_GPIO_Init+0x1c4>)
        CLEAR_BIT(temp, (0x0FUL) << (4U * (position & 0x03U)));
        SET_BIT(temp, (GPIO_GET_INDEX(GPIOx)) << (4 * (position & 0x03U)));
        SYSCFG->EXTICR[position >> 2U] = temp;

        /* Clear EXTI line configuration */
        temp = EXTI->IMR;
 8000b48:	46c8      	mov	r8, r9
        __HAL_RCC_SYSCFG_CLK_ENABLE();
 8000b4a:	4693      	mov	fp, r2
        temp = EXTI->IMR;
 8000b4c:	4f68      	ldr	r7, [pc, #416]	; (8000cf0 <HAL_GPIO_Init+0x1c8>)
 8000b4e:	9101      	str	r1, [sp, #4]
    iocurrent = (GPIO_Init->Pin) & (1U << position);
 8000b50:	4652      	mov	r2, sl
 8000b52:	4644      	mov	r4, r8
 8000b54:	409a      	lsls	r2, r3
 8000b56:	4014      	ands	r4, r2
 8000b58:	9402      	str	r4, [sp, #8]
    if (iocurrent)
 8000b5a:	4644      	mov	r4, r8
 8000b5c:	4214      	tst	r4, r2
 8000b5e:	d067      	beq.n	8000c30 <HAL_GPIO_Init+0x108>
      if ((GPIO_Init->Mode == GPIO_MODE_OUTPUT_PP) || (GPIO_Init->Mode == GPIO_MODE_AF_PP) ||
 8000b60:	9901      	ldr	r1, [sp, #4]
 8000b62:	6849      	ldr	r1, [r1, #4]
 8000b64:	000e      	movs	r6, r1
 8000b66:	4689      	mov	r9, r1
 8000b68:	2110      	movs	r1, #16
 8000b6a:	438e      	bics	r6, r1
 8000b6c:	1e74      	subs	r4, r6, #1
 8000b6e:	2c01      	cmp	r4, #1
 8000b70:	d969      	bls.n	8000c46 <HAL_GPIO_Init+0x11e>
      temp &= ~(GPIO_PUPDR_PUPD0 << (position * 2U));
 8000b72:	2503      	movs	r5, #3
 8000b74:	005c      	lsls	r4, r3, #1
 8000b76:	40a5      	lsls	r5, r4
      temp = GPIOx->PUPDR;
 8000b78:	68c2      	ldr	r2, [r0, #12]
      temp &= ~(GPIO_PUPDR_PUPD0 << (position * 2U));
 8000b7a:	43e9      	mvns	r1, r5
 8000b7c:	43aa      	bics	r2, r5
 8000b7e:	0015      	movs	r5, r2
      temp |= ((GPIO_Init->Pull) << (position * 2U));
 8000b80:	9a01      	ldr	r2, [sp, #4]
      temp &= ~(GPIO_PUPDR_PUPD0 << (position * 2U));
 8000b82:	9103      	str	r1, [sp, #12]
      temp |= ((GPIO_Init->Pull) << (position * 2U));
 8000b84:	6892      	ldr	r2, [r2, #8]
 8000b86:	40a2      	lsls	r2, r4
 8000b88:	432a      	orrs	r2, r5
      GPIOx->PUPDR = temp;
 8000b8a:	60c2      	str	r2, [r0, #12]
      temp |= ((GPIO_Init->Mode & GPIO_MODE) << (position * 2U));
 8000b8c:	4649      	mov	r1, r9
 8000b8e:	2603      	movs	r6, #3
      temp = GPIOx->MODER;
 8000b90:	6802      	ldr	r2, [r0, #0]
      temp |= ((GPIO_Init->Mode & GPIO_MODE) << (position * 2U));
 8000b92:	400e      	ands	r6, r1
      temp &= ~(GPIO_MODER_MODE0 << (position * 2U));
 8000b94:	9d03      	ldr	r5, [sp, #12]
      temp |= ((GPIO_Init->Mode & GPIO_MODE) << (position * 2U));
 8000b96:	40a6      	lsls	r6, r4
      if ((GPIO_Init->Mode & EXTI_MODE) == EXTI_MODE)
 8000b98:	2180      	movs	r1, #128	; 0x80
      temp &= ~(GPIO_MODER_MODE0 << (position * 2U));
 8000b9a:	4015      	ands	r5, r2
      if ((GPIO_Init->Mode & EXTI_MODE) == EXTI_MODE)
 8000b9c:	464a      	mov	r2, r9
      temp |= ((GPIO_Init->Mode & GPIO_MODE) << (position * 2U));
 8000b9e:	432e      	orrs	r6, r5
      if ((GPIO_Init->Mode & EXTI_MODE) == EXTI_MODE)
 8000ba0:	0549      	lsls	r1, r1, #21
      GPIOx->MODER = temp;
 8000ba2:	6006      	str	r6, [r0, #0]
      if ((GPIO_Init->Mode & EXTI_MODE) == EXTI_MODE)
 8000ba4:	420a      	tst	r2, r1
 8000ba6:	d043      	beq.n	8000c30 <HAL_GPIO_Init+0x108>
        __HAL_RCC_SYSCFG_CLK_ENABLE();
 8000ba8:	465a      	mov	r2, fp
 8000baa:	4651      	mov	r1, sl
 8000bac:	6b52      	ldr	r2, [r2, #52]	; 0x34
        CLEAR_BIT(temp, (0x0FUL) << (4U * (position & 0x03U)));
 8000bae:	2503      	movs	r5, #3
        __HAL_RCC_SYSCFG_CLK_ENABLE();
 8000bb0:	430a      	orrs	r2, r1
 8000bb2:	4659      	mov	r1, fp
        CLEAR_BIT(temp, (0x0FUL) << (4U * (position & 0x03U)));
 8000bb4:	260f      	movs	r6, #15
        __HAL_RCC_SYSCFG_CLK_ENABLE();
 8000bb6:	634a      	str	r2, [r1, #52]	; 0x34
        temp = SYSCFG->EXTICR[position >> 2U];
 8000bb8:	494e      	ldr	r1, [pc, #312]	; (8000cf4 <HAL_GPIO_Init+0x1cc>)
        CLEAR_BIT(temp, (0x0FUL) << (4U * (position & 0x03U)));
 8000bba:	401d      	ands	r5, r3
 8000bbc:	468c      	mov	ip, r1
 8000bbe:	00ad      	lsls	r5, r5, #2
 8000bc0:	40ae      	lsls	r6, r5
        SET_BIT(temp, (GPIO_GET_INDEX(GPIOx)) << (4 * (position & 0x03U)));
 8000bc2:	21a0      	movs	r1, #160	; 0xa0
        temp = SYSCFG->EXTICR[position >> 2U];
 8000bc4:	089a      	lsrs	r2, r3, #2
 8000bc6:	0092      	lsls	r2, r2, #2
 8000bc8:	4462      	add	r2, ip
 8000bca:	6894      	ldr	r4, [r2, #8]
        SET_BIT(temp, (GPIO_GET_INDEX(GPIOx)) << (4 * (position & 0x03U)));
 8000bcc:	05c9      	lsls	r1, r1, #23
        CLEAR_BIT(temp, (0x0FUL) << (4U * (position & 0x03U)));
 8000bce:	43b4      	bics	r4, r6
        SET_BIT(temp, (GPIO_GET_INDEX(GPIOx)) << (4 * (position & 0x03U)));
 8000bd0:	4288      	cmp	r0, r1
 8000bd2:	d012      	beq.n	8000bfa <HAL_GPIO_Init+0xd2>
 8000bd4:	4e48      	ldr	r6, [pc, #288]	; (8000cf8 <HAL_GPIO_Init+0x1d0>)
 8000bd6:	42b0      	cmp	r0, r6
 8000bd8:	d100      	bne.n	8000bdc <HAL_GPIO_Init+0xb4>
 8000bda:	e07b      	b.n	8000cd4 <HAL_GPIO_Init+0x1ac>
 8000bdc:	4e47      	ldr	r6, [pc, #284]	; (8000cfc <HAL_GPIO_Init+0x1d4>)
 8000bde:	42b0      	cmp	r0, r6
 8000be0:	d100      	bne.n	8000be4 <HAL_GPIO_Init+0xbc>
 8000be2:	e07b      	b.n	8000cdc <HAL_GPIO_Init+0x1b4>
 8000be4:	4e46      	ldr	r6, [pc, #280]	; (8000d00 <HAL_GPIO_Init+0x1d8>)
 8000be6:	42b0      	cmp	r0, r6
 8000be8:	d100      	bne.n	8000bec <HAL_GPIO_Init+0xc4>
 8000bea:	e06f      	b.n	8000ccc <HAL_GPIO_Init+0x1a4>
 8000bec:	4e45      	ldr	r6, [pc, #276]	; (8000d04 <HAL_GPIO_Init+0x1dc>)
 8000bee:	42b0      	cmp	r0, r6
 8000bf0:	d100      	bne.n	8000bf4 <HAL_GPIO_Init+0xcc>
 8000bf2:	e077      	b.n	8000ce4 <HAL_GPIO_Init+0x1bc>
 8000bf4:	2606      	movs	r6, #6
 8000bf6:	40ae      	lsls	r6, r5
 8000bf8:	4334      	orrs	r4, r6
        temp &= ~((uint32_t)iocurrent);
 8000bfa:	9902      	ldr	r1, [sp, #8]
        SYSCFG->EXTICR[position >> 2U] = temp;
 8000bfc:	6094      	str	r4, [r2, #8]
        temp &= ~((uint32_t)iocurrent);
 8000bfe:	43cd      	mvns	r5, r1
        if ((GPIO_Init->Mode & GPIO_MODE_IT) == GPIO_MODE_IT)
 8000c00:	4649      	mov	r1, r9
        temp = EXTI->IMR;
 8000c02:	683a      	ldr	r2, [r7, #0]
        if ((GPIO_Init->Mode & GPIO_MODE_IT) == GPIO_MODE_IT)
 8000c04:	03c9      	lsls	r1, r1, #15
 8000c06:	d45e      	bmi.n	8000cc6 <HAL_GPIO_Init+0x19e>
        temp &= ~((uint32_t)iocurrent);
 8000c08:	402a      	ands	r2, r5
        }
        EXTI->IMR = temp;

        temp = EXTI->EMR;
        temp &= ~((uint32_t)iocurrent);
        if ((GPIO_Init->Mode & GPIO_MODE_EVT) == GPIO_MODE_EVT)
 8000c0a:	4649      	mov	r1, r9
        EXTI->IMR = temp;
 8000c0c:	603a      	str	r2, [r7, #0]
        temp = EXTI->EMR;
 8000c0e:	687a      	ldr	r2, [r7, #4]
        if ((GPIO_Init->Mode & GPIO_MODE_EVT) == GPIO_MODE_EVT)
 8000c10:	0389      	lsls	r1, r1, #14
 8000c12:	d455      	bmi.n	8000cc0 <HAL_GPIO_Init+0x198>
        temp &= ~((uint32_t)iocurrent);
 8000c14:	402a      	ands	r2, r5
        {
          temp |= iocurrent;
        }
        EXTI->EMR = temp;
 8000c16:	607a      	str	r2, [r7, #4]

        /* Clear Rising Falling edge configuration */
        temp = EXTI->RTSR;
        temp &= ~((uint32_t)iocurrent);
        if ((GPIO_Init->Mode & RISING_EDGE) == RISING_EDGE)
 8000c18:	464a      	mov	r2, r9
        temp = EXTI->RTSR;
 8000c1a:	68bc      	ldr	r4, [r7, #8]
        if ((GPIO_Init->Mode & RISING_EDGE) == RISING_EDGE)
 8000c1c:	02d2      	lsls	r2, r2, #11
 8000c1e:	d44c      	bmi.n	8000cba <HAL_GPIO_Init+0x192>
        temp &= ~((uint32_t)iocurrent);
 8000c20:	402c      	ands	r4, r5
        }
        EXTI->RTSR = temp;

        temp = EXTI->FTSR;
        temp &= ~((uint32_t)iocurrent);
        if ((GPIO_Init->Mode & FALLING_EDGE) == FALLING_EDGE)
 8000c22:	4649      	mov	r1, r9
        EXTI->RTSR = temp;
 8000c24:	60bc      	str	r4, [r7, #8]
        temp = EXTI->FTSR;
 8000c26:	68fa      	ldr	r2, [r7, #12]
        if ((GPIO_Init->Mode & FALLING_EDGE) == FALLING_EDGE)
 8000c28:	0289      	lsls	r1, r1, #10
 8000c2a:	d441      	bmi.n	8000cb0 <HAL_GPIO_Init+0x188>
        temp &= ~((uint32_t)iocurrent);
 8000c2c:	402a      	ands	r2, r5
        {
          temp |= iocurrent;
        }
        EXTI->FTSR = temp;
 8000c2e:	60fa      	str	r2, [r7, #12]
  while (((GPIO_Init->Pin) >> position) != 0)
 8000c30:	4642      	mov	r2, r8
      }
    }
    position++;
 8000c32:	3301      	adds	r3, #1
  while (((GPIO_Init->Pin) >> position) != 0)
 8000c34:	40da      	lsrs	r2, r3
 8000c36:	d18b      	bne.n	8000b50 <HAL_GPIO_Init+0x28>
  }
}
 8000c38:	b005      	add	sp, #20
 8000c3a:	bcf0      	pop	{r4, r5, r6, r7}
 8000c3c:	46bb      	mov	fp, r7
 8000c3e:	46b2      	mov	sl, r6
 8000c40:	46a9      	mov	r9, r5
 8000c42:	46a0      	mov	r8, r4
 8000c44:	bdf0      	pop	{r4, r5, r6, r7, pc}
        temp &= ~(GPIO_OSPEEDER_OSPEED0 << (position * 2U));
 8000c46:	2103      	movs	r1, #3
 8000c48:	005c      	lsls	r4, r3, #1
 8000c4a:	40a1      	lsls	r1, r4
 8000c4c:	468c      	mov	ip, r1
 8000c4e:	43c9      	mvns	r1, r1
 8000c50:	9103      	str	r1, [sp, #12]
 8000c52:	4661      	mov	r1, ip
        temp = GPIOx->OSPEEDR;
 8000c54:	6885      	ldr	r5, [r0, #8]
        temp &= ~(GPIO_OSPEEDER_OSPEED0 << (position * 2U));
 8000c56:	438d      	bics	r5, r1
        temp |= (GPIO_Init->Speed << (position * 2U));
 8000c58:	9901      	ldr	r1, [sp, #4]
 8000c5a:	68c9      	ldr	r1, [r1, #12]
 8000c5c:	40a1      	lsls	r1, r4
 8000c5e:	430d      	orrs	r5, r1
        GPIOx->OSPEEDR = temp;
 8000c60:	6085      	str	r5, [r0, #8]
        temp = GPIOx->OTYPER;
 8000c62:	6845      	ldr	r5, [r0, #4]
        temp |= (((GPIO_Init->Mode & GPIO_OUTPUT_TYPE) >> 4U) << position);
 8000c64:	4651      	mov	r1, sl
        temp &= ~(GPIO_OTYPER_OT_0 << position) ;
 8000c66:	4395      	bics	r5, r2
        temp |= (((GPIO_Init->Mode & GPIO_OUTPUT_TYPE) >> 4U) << position);
 8000c68:	464a      	mov	r2, r9
 8000c6a:	0912      	lsrs	r2, r2, #4
 8000c6c:	400a      	ands	r2, r1
 8000c6e:	409a      	lsls	r2, r3
 8000c70:	432a      	orrs	r2, r5
        GPIOx->OTYPER = temp;
 8000c72:	6042      	str	r2, [r0, #4]
      temp &= ~(GPIO_PUPDR_PUPD0 << (position * 2U));
 8000c74:	4662      	mov	r2, ip
      temp = GPIOx->PUPDR;
 8000c76:	68c5      	ldr	r5, [r0, #12]
      temp |= ((GPIO_Init->Pull) << (position * 2U));
 8000c78:	9901      	ldr	r1, [sp, #4]
      temp &= ~(GPIO_PUPDR_PUPD0 << (position * 2U));
 8000c7a:	4395      	bics	r5, r2
      temp |= ((GPIO_Init->Pull) << (position * 2U));
 8000c7c:	688a      	ldr	r2, [r1, #8]
 8000c7e:	40a2      	lsls	r2, r4
 8000c80:	432a      	orrs	r2, r5
      GPIOx->PUPDR = temp;
 8000c82:	60c2      	str	r2, [r0, #12]
      if ((GPIO_Init->Mode == GPIO_MODE_AF_PP) || (GPIO_Init->Mode == GPIO_MODE_AF_OD))
 8000c84:	2e02      	cmp	r6, #2
 8000c86:	d000      	beq.n	8000c8a <HAL_GPIO_Init+0x162>
 8000c88:	e780      	b.n	8000b8c <HAL_GPIO_Init+0x64>
        temp &= ~(0xFUL << ((uint32_t)(position & 0x07UL) * 4U));
 8000c8a:	2507      	movs	r5, #7
 8000c8c:	401d      	ands	r5, r3
 8000c8e:	00ad      	lsls	r5, r5, #2
 8000c90:	360d      	adds	r6, #13
 8000c92:	40ae      	lsls	r6, r5
        temp = GPIOx->AFR[position >> 3U];
 8000c94:	08da      	lsrs	r2, r3, #3
 8000c96:	0092      	lsls	r2, r2, #2
 8000c98:	1882      	adds	r2, r0, r2
 8000c9a:	6a11      	ldr	r1, [r2, #32]
        temp &= ~(0xFUL << ((uint32_t)(position & 0x07UL) * 4U));
 8000c9c:	43b1      	bics	r1, r6
 8000c9e:	468c      	mov	ip, r1
        temp |= ((uint32_t)(GPIO_Init->Alternate) << (((uint32_t)position & (uint32_t)0x07U) * 4U));
 8000ca0:	9901      	ldr	r1, [sp, #4]
 8000ca2:	6909      	ldr	r1, [r1, #16]
 8000ca4:	40a9      	lsls	r1, r5
 8000ca6:	000d      	movs	r5, r1
 8000ca8:	4661      	mov	r1, ip
 8000caa:	430d      	orrs	r5, r1
        GPIOx->AFR[position >> 3U] = temp;
 8000cac:	6215      	str	r5, [r2, #32]
 8000cae:	e76d      	b.n	8000b8c <HAL_GPIO_Init+0x64>
          temp |= iocurrent;
 8000cb0:	9902      	ldr	r1, [sp, #8]
 8000cb2:	4311      	orrs	r1, r2
 8000cb4:	000a      	movs	r2, r1
        EXTI->FTSR = temp;
 8000cb6:	60fa      	str	r2, [r7, #12]
 8000cb8:	e7ba      	b.n	8000c30 <HAL_GPIO_Init+0x108>
          temp |= iocurrent;
 8000cba:	9a02      	ldr	r2, [sp, #8]
 8000cbc:	4314      	orrs	r4, r2
 8000cbe:	e7b0      	b.n	8000c22 <HAL_GPIO_Init+0xfa>
          temp |= iocurrent;
 8000cc0:	9902      	ldr	r1, [sp, #8]
 8000cc2:	430a      	orrs	r2, r1
 8000cc4:	e7a7      	b.n	8000c16 <HAL_GPIO_Init+0xee>
          temp |= iocurrent;
 8000cc6:	9902      	ldr	r1, [sp, #8]
 8000cc8:	430a      	orrs	r2, r1
 8000cca:	e79e      	b.n	8000c0a <HAL_GPIO_Init+0xe2>
 8000ccc:	2103      	movs	r1, #3
 8000cce:	40a9      	lsls	r1, r5
 8000cd0:	430c      	orrs	r4, r1
 8000cd2:	e792      	b.n	8000bfa <HAL_GPIO_Init+0xd2>
 8000cd4:	4651      	mov	r1, sl
 8000cd6:	40a9      	lsls	r1, r5
 8000cd8:	430c      	orrs	r4, r1
 8000cda:	e78e      	b.n	8000bfa <HAL_GPIO_Init+0xd2>
 8000cdc:	2602      	movs	r6, #2
 8000cde:	40ae      	lsls	r6, r5
 8000ce0:	4334      	orrs	r4, r6
 8000ce2:	e78a      	b.n	8000bfa <HAL_GPIO_Init+0xd2>
 8000ce4:	2605      	movs	r6, #5
 8000ce6:	40ae      	lsls	r6, r5
 8000ce8:	4334      	orrs	r4, r6
 8000cea:	e786      	b.n	8000bfa <HAL_GPIO_Init+0xd2>
 8000cec:	40021000 	.word	0x40021000
 8000cf0:	40010400 	.word	0x40010400
 8000cf4:	40010000 	.word	0x40010000
 8000cf8:	50000400 	.word	0x50000400
 8000cfc:	50000800 	.word	0x50000800
 8000d00:	50000c00 	.word	0x50000c00
 8000d04:	50001c00 	.word	0x50001c00

08000d08 <HAL_GPIO_WritePin>:
{
  /* Check the parameters */
  assert_param(IS_GPIO_PIN_AVAILABLE(GPIOx, GPIO_Pin));
  assert_param(IS_GPIO_PIN_ACTION(PinState));

  if (PinState != GPIO_PIN_RESET)
 8000d08:	2a00      	cmp	r2, #0
 8000d0a:	d001      	beq.n	8000d10 <HAL_GPIO_WritePin+0x8>
  {
    GPIOx->BSRR = GPIO_Pin;
 8000d0c:	6181      	str	r1, [r0, #24]
  }
  else
  {
    GPIOx->BRR = GPIO_Pin ;
  }
}
 8000d0e:	4770      	bx	lr
    GPIOx->BRR = GPIO_Pin ;
 8000d10:	6281      	str	r1, [r0, #40]	; 0x28
}
 8000d12:	e7fc      	b.n	8000d0e <HAL_GPIO_WritePin+0x6>

08000d14 <HAL_I2C_Init>:
  * @param  hi2c Pointer to a I2C_HandleTypeDef structure that contains
  *                the configuration information for the specified I2C.
  * @retval HAL status
  */
HAL_StatusTypeDef HAL_I2C_Init(I2C_HandleTypeDef *hi2c)
{
 8000d14:	b510      	push	{r4, lr}
 8000d16:	1e04      	subs	r4, r0, #0
  /* Check the I2C handle allocation */
  if (hi2c == NULL)
 8000d18:	d04d      	beq.n	8000db6 <HAL_I2C_Init+0xa2>
  assert_param(IS_I2C_OWN_ADDRESS2(hi2c->Init.OwnAddress2));
  assert_param(IS_I2C_OWN_ADDRESS2_MASK(hi2c->Init.OwnAddress2Masks));
  assert_param(IS_I2C_GENERAL_CALL(hi2c->Init.GeneralCallMode));
  assert_param(IS_I2C_NO_STRETCH(hi2c->Init.NoStretchMode));

  if (hi2c->State == HAL_I2C_STATE_RESET)
 8000d1a:	2341      	movs	r3, #65	; 0x41
 8000d1c:	5cc3      	ldrb	r3, [r0, r3]
 8000d1e:	b2da      	uxtb	r2, r3
 8000d20:	2b00      	cmp	r3, #0
 8000d22:	d043      	beq.n	8000dac <HAL_I2C_Init+0x98>
    /* Init the low level hardware : GPIO, CLOCK, CORTEX...etc */
    HAL_I2C_MspInit(hi2c);
#endif /* USE_HAL_I2C_REGISTER_CALLBACKS */
  }

  hi2c->State = HAL_I2C_STATE_BUSY;
 8000d24:	2341      	movs	r3, #65	; 0x41
 8000d26:	2224      	movs	r2, #36	; 0x24

  /* Disable the selected I2C peripheral */
  __HAL_I2C_DISABLE(hi2c);
 8000d28:	2101      	movs	r1, #1
  hi2c->State = HAL_I2C_STATE_BUSY;
 8000d2a:	54e2      	strb	r2, [r4, r3]
  __HAL_I2C_DISABLE(hi2c);
 8000d2c:	6823      	ldr	r3, [r4, #0]
 8000d2e:	681a      	ldr	r2, [r3, #0]
 8000d30:	438a      	bics	r2, r1
 8000d32:	601a      	str	r2, [r3, #0]

  /*---------------------------- I2Cx TIMINGR Configuration ------------------*/
  /* Configure I2Cx: Frequency range */
  hi2c->Instance->TIMINGR = hi2c->Init.Timing & TIMING_CLEAR_MASK;
 8000d34:	6861      	ldr	r1, [r4, #4]
 8000d36:	4a21      	ldr	r2, [pc, #132]	; (8000dbc <HAL_I2C_Init+0xa8>)
 8000d38:	400a      	ands	r2, r1
 8000d3a:	611a      	str	r2, [r3, #16]

  /*---------------------------- I2Cx OAR1 Configuration ---------------------*/
  /* Disable Own Address1 before set the Own Address1 configuration */
  hi2c->Instance->OAR1 &= ~I2C_OAR1_OA1EN;
 8000d3c:	689a      	ldr	r2, [r3, #8]
 8000d3e:	4920      	ldr	r1, [pc, #128]	; (8000dc0 <HAL_I2C_Init+0xac>)
 8000d40:	400a      	ands	r2, r1
 8000d42:	609a      	str	r2, [r3, #8]

  /* Configure I2Cx: Own Address1 and ack own address1 mode */
  if (hi2c->Init.AddressingMode == I2C_ADDRESSINGMODE_7BIT)
 8000d44:	68e2      	ldr	r2, [r4, #12]
 8000d46:	2a01      	cmp	r2, #1
 8000d48:	d02a      	beq.n	8000da0 <HAL_I2C_Init+0x8c>
  {
    hi2c->Instance->OAR1 = (I2C_OAR1_OA1EN | hi2c->Init.OwnAddress1);
  }
  else /* I2C_ADDRESSINGMODE_10BIT */
  {
    hi2c->Instance->OAR1 = (I2C_OAR1_OA1EN | I2C_OAR1_OA1MODE | hi2c->Init.OwnAddress1);
 8000d4a:	2184      	movs	r1, #132	; 0x84
 8000d4c:	68a0      	ldr	r0, [r4, #8]
 8000d4e:	0209      	lsls	r1, r1, #8
 8000d50:	4301      	orrs	r1, r0
 8000d52:	6099      	str	r1, [r3, #8]
  }

  /*---------------------------- I2Cx CR2 Configuration ----------------------*/
  /* Configure I2Cx: Addressing Master mode */
  if (hi2c->Init.AddressingMode == I2C_ADDRESSINGMODE_10BIT)
 8000d54:	2a02      	cmp	r2, #2
 8000d56:	d102      	bne.n	8000d5e <HAL_I2C_Init+0x4a>
  {
    hi2c->Instance->CR2 = (I2C_CR2_ADD10);
 8000d58:	2280      	movs	r2, #128	; 0x80
 8000d5a:	0112      	lsls	r2, r2, #4
 8000d5c:	605a      	str	r2, [r3, #4]
  }
  /* Enable the AUTOEND by default, and enable NACK (should be disable only during Slave process */
  hi2c->Instance->CR2 |= (I2C_CR2_AUTOEND | I2C_CR2_NACK);
 8000d5e:	6859      	ldr	r1, [r3, #4]
 8000d60:	4a18      	ldr	r2, [pc, #96]	; (8000dc4 <HAL_I2C_Init+0xb0>)
  hi2c->ErrorCode = HAL_I2C_ERROR_NONE;
  hi2c->State = HAL_I2C_STATE_READY;
  hi2c->PreviousState = I2C_STATE_NONE;
  hi2c->Mode = HAL_I2C_MODE_NONE;

  return HAL_OK;
 8000d62:	2000      	movs	r0, #0
  hi2c->Instance->CR2 |= (I2C_CR2_AUTOEND | I2C_CR2_NACK);
 8000d64:	430a      	orrs	r2, r1
 8000d66:	605a      	str	r2, [r3, #4]
  hi2c->Instance->OAR2 &= ~I2C_DUALADDRESS_ENABLE;
 8000d68:	68da      	ldr	r2, [r3, #12]
 8000d6a:	4915      	ldr	r1, [pc, #84]	; (8000dc0 <HAL_I2C_Init+0xac>)
 8000d6c:	400a      	ands	r2, r1
 8000d6e:	60da      	str	r2, [r3, #12]
  hi2c->Instance->OAR2 = (hi2c->Init.DualAddressMode | hi2c->Init.OwnAddress2 | (hi2c->Init.OwnAddress2Masks << 8));
 8000d70:	6961      	ldr	r1, [r4, #20]
 8000d72:	6922      	ldr	r2, [r4, #16]
 8000d74:	430a      	orrs	r2, r1
 8000d76:	69a1      	ldr	r1, [r4, #24]
 8000d78:	0209      	lsls	r1, r1, #8
 8000d7a:	430a      	orrs	r2, r1
 8000d7c:	60da      	str	r2, [r3, #12]
  hi2c->Instance->CR1 = (hi2c->Init.GeneralCallMode | hi2c->Init.NoStretchMode);
 8000d7e:	6a21      	ldr	r1, [r4, #32]
 8000d80:	69e2      	ldr	r2, [r4, #28]
 8000d82:	430a      	orrs	r2, r1
  __HAL_I2C_ENABLE(hi2c);
 8000d84:	2101      	movs	r1, #1
  hi2c->Instance->CR1 = (hi2c->Init.GeneralCallMode | hi2c->Init.NoStretchMode);
 8000d86:	601a      	str	r2, [r3, #0]
  __HAL_I2C_ENABLE(hi2c);
 8000d88:	681a      	ldr	r2, [r3, #0]
 8000d8a:	430a      	orrs	r2, r1
 8000d8c:	601a      	str	r2, [r3, #0]
  hi2c->ErrorCode = HAL_I2C_ERROR_NONE;
 8000d8e:	2300      	movs	r3, #0
  hi2c->State = HAL_I2C_STATE_READY;
 8000d90:	2241      	movs	r2, #65	; 0x41
 8000d92:	311f      	adds	r1, #31
  hi2c->ErrorCode = HAL_I2C_ERROR_NONE;
 8000d94:	6463      	str	r3, [r4, #68]	; 0x44
  hi2c->State = HAL_I2C_STATE_READY;
 8000d96:	54a1      	strb	r1, [r4, r2]
  hi2c->Mode = HAL_I2C_MODE_NONE;
 8000d98:	3201      	adds	r2, #1
  hi2c->PreviousState = I2C_STATE_NONE;
 8000d9a:	6323      	str	r3, [r4, #48]	; 0x30
  hi2c->Mode = HAL_I2C_MODE_NONE;
 8000d9c:	54a3      	strb	r3, [r4, r2]
}
 8000d9e:	bd10      	pop	{r4, pc}
    hi2c->Instance->OAR1 = (I2C_OAR1_OA1EN | hi2c->Init.OwnAddress1);
 8000da0:	2280      	movs	r2, #128	; 0x80
 8000da2:	68a1      	ldr	r1, [r4, #8]
 8000da4:	0212      	lsls	r2, r2, #8
 8000da6:	430a      	orrs	r2, r1
 8000da8:	609a      	str	r2, [r3, #8]
  if (hi2c->Init.AddressingMode == I2C_ADDRESSINGMODE_10BIT)
 8000daa:	e7d8      	b.n	8000d5e <HAL_I2C_Init+0x4a>
    hi2c->Lock = HAL_UNLOCKED;
 8000dac:	3340      	adds	r3, #64	; 0x40
 8000dae:	54c2      	strb	r2, [r0, r3]
    HAL_I2C_MspInit(hi2c);
 8000db0:	f7ff fc1e 	bl	80005f0 <HAL_I2C_MspInit>
 8000db4:	e7b6      	b.n	8000d24 <HAL_I2C_Init+0x10>
    return HAL_ERROR;
 8000db6:	2001      	movs	r0, #1
 8000db8:	e7f1      	b.n	8000d9e <HAL_I2C_Init+0x8a>
 8000dba:	46c0      	nop			; (mov r8, r8)
 8000dbc:	f0ffffff 	.word	0xf0ffffff
 8000dc0:	ffff7fff 	.word	0xffff7fff
 8000dc4:	02008000 	.word	0x02008000

08000dc8 <HAL_I2CEx_ConfigAnalogFilter>:
  *                the configuration information for the specified I2Cx peripheral.
  * @param  AnalogFilter New state of the Analog filter.
  * @retval HAL status
  */
HAL_StatusTypeDef HAL_I2CEx_ConfigAnalogFilter(I2C_HandleTypeDef *hi2c, uint32_t AnalogFilter)
{
 8000dc8:	b5f0      	push	{r4, r5, r6, r7, lr}
  /* Check the parameters */
  assert_param(IS_I2C_ALL_INSTANCE(hi2c->Instance));
  assert_param(IS_I2C_ANALOG_FILTER(AnalogFilter));

  if (hi2c->State == HAL_I2C_STATE_READY)
 8000dca:	2541      	movs	r5, #65	; 0x41
 8000dcc:	5d43      	ldrb	r3, [r0, r5]
{
 8000dce:	000a      	movs	r2, r1
  if (hi2c->State == HAL_I2C_STATE_READY)
 8000dd0:	b2de      	uxtb	r6, r3
 8000dd2:	2b20      	cmp	r3, #32
 8000dd4:	d11b      	bne.n	8000e0e <HAL_I2CEx_ConfigAnalogFilter+0x46>
  {
    /* Process Locked */
    __HAL_LOCK(hi2c);
 8000dd6:	2740      	movs	r7, #64	; 0x40
 8000dd8:	5dc3      	ldrb	r3, [r0, r7]
 8000dda:	2b01      	cmp	r3, #1
 8000ddc:	d017      	beq.n	8000e0e <HAL_I2CEx_ConfigAnalogFilter+0x46>

    hi2c->State = HAL_I2C_STATE_BUSY;

    /* Disable the selected I2C peripheral */
    __HAL_I2C_DISABLE(hi2c);
 8000dde:	2101      	movs	r1, #1
    hi2c->State = HAL_I2C_STATE_BUSY;
 8000de0:	2324      	movs	r3, #36	; 0x24
    __HAL_I2C_DISABLE(hi2c);
 8000de2:	468c      	mov	ip, r1
    hi2c->State = HAL_I2C_STATE_BUSY;
 8000de4:	5543      	strb	r3, [r0, r5]
    __HAL_I2C_DISABLE(hi2c);
 8000de6:	6803      	ldr	r3, [r0, #0]
 8000de8:	681c      	ldr	r4, [r3, #0]
 8000dea:	438c      	bics	r4, r1
 8000dec:	601c      	str	r4, [r3, #0]

    /* Reset I2Cx ANOFF bit */
    hi2c->Instance->CR1 &= ~(I2C_CR1_ANFOFF);
 8000dee:	681c      	ldr	r4, [r3, #0]
 8000df0:	4908      	ldr	r1, [pc, #32]	; (8000e14 <HAL_I2CEx_ConfigAnalogFilter+0x4c>)
 8000df2:	400c      	ands	r4, r1
 8000df4:	601c      	str	r4, [r3, #0]

    /* Set analog filter bit*/
    hi2c->Instance->CR1 |= AnalogFilter;
 8000df6:	6819      	ldr	r1, [r3, #0]
 8000df8:	4311      	orrs	r1, r2
 8000dfa:	6019      	str	r1, [r3, #0]

    __HAL_I2C_ENABLE(hi2c);
 8000dfc:	4661      	mov	r1, ip
 8000dfe:	681a      	ldr	r2, [r3, #0]
 8000e00:	430a      	orrs	r2, r1
 8000e02:	601a      	str	r2, [r3, #0]

    hi2c->State = HAL_I2C_STATE_READY;

    /* Process Unlocked */
    __HAL_UNLOCK(hi2c);
 8000e04:	2300      	movs	r3, #0
    hi2c->State = HAL_I2C_STATE_READY;
 8000e06:	5546      	strb	r6, [r0, r5]
    __HAL_UNLOCK(hi2c);
 8000e08:	55c3      	strb	r3, [r0, r7]

    return HAL_OK;
 8000e0a:	2000      	movs	r0, #0
  }
  else
  {
    return HAL_BUSY;
  }
}
 8000e0c:	bdf0      	pop	{r4, r5, r6, r7, pc}
    return HAL_BUSY;
 8000e0e:	2002      	movs	r0, #2
 8000e10:	e7fc      	b.n	8000e0c <HAL_I2CEx_ConfigAnalogFilter+0x44>
 8000e12:	46c0      	nop			; (mov r8, r8)
 8000e14:	ffffefff 	.word	0xffffefff

08000e18 <HAL_I2CEx_ConfigDigitalFilter>:
  *                the configuration information for the specified I2Cx peripheral.
  * @param  DigitalFilter Coefficient of digital noise filter between Min_Data=0x00 and Max_Data=0x0F.
  * @retval HAL status
  */
HAL_StatusTypeDef HAL_I2CEx_ConfigDigitalFilter(I2C_HandleTypeDef *hi2c, uint32_t DigitalFilter)
{
 8000e18:	b5f0      	push	{r4, r5, r6, r7, lr}

  /* Check the parameters */
  assert_param(IS_I2C_ALL_INSTANCE(hi2c->Instance));
  assert_param(IS_I2C_DIGITAL_FILTER(DigitalFilter));

  if (hi2c->State == HAL_I2C_STATE_READY)
 8000e1a:	2541      	movs	r5, #65	; 0x41
 8000e1c:	5d43      	ldrb	r3, [r0, r5]
 8000e1e:	b2de      	uxtb	r6, r3
 8000e20:	2b20      	cmp	r3, #32
 8000e22:	d11a      	bne.n	8000e5a <HAL_I2CEx_ConfigDigitalFilter+0x42>
  {
    /* Process Locked */
    __HAL_LOCK(hi2c);
 8000e24:	2740      	movs	r7, #64	; 0x40
 8000e26:	5dc3      	ldrb	r3, [r0, r7]
 8000e28:	2b01      	cmp	r3, #1
 8000e2a:	d016      	beq.n	8000e5a <HAL_I2CEx_ConfigDigitalFilter+0x42>

    hi2c->State = HAL_I2C_STATE_BUSY;
 8000e2c:	2324      	movs	r3, #36	; 0x24
 8000e2e:	5543      	strb	r3, [r0, r5]

    /* Disable the selected I2C peripheral */
    __HAL_I2C_DISABLE(hi2c);
 8000e30:	3b23      	subs	r3, #35	; 0x23
 8000e32:	469c      	mov	ip, r3
 8000e34:	6804      	ldr	r4, [r0, #0]

    /* Reset I2Cx DNF bits [11:8] */
    tmpreg &= ~(I2C_CR1_DNF);

    /* Set I2Cx DNF coefficient */
    tmpreg |= DigitalFilter << 8U;
 8000e36:	0209      	lsls	r1, r1, #8
    __HAL_I2C_DISABLE(hi2c);
 8000e38:	6822      	ldr	r2, [r4, #0]
 8000e3a:	439a      	bics	r2, r3
 8000e3c:	6022      	str	r2, [r4, #0]
    tmpreg = hi2c->Instance->CR1;
 8000e3e:	6822      	ldr	r2, [r4, #0]
    tmpreg &= ~(I2C_CR1_DNF);
 8000e40:	4b07      	ldr	r3, [pc, #28]	; (8000e60 <HAL_I2CEx_ConfigDigitalFilter+0x48>)
 8000e42:	401a      	ands	r2, r3
    tmpreg |= DigitalFilter << 8U;
 8000e44:	4311      	orrs	r1, r2

    /* Store the new register value */
    hi2c->Instance->CR1 = tmpreg;

    __HAL_I2C_ENABLE(hi2c);
 8000e46:	4662      	mov	r2, ip
    hi2c->Instance->CR1 = tmpreg;
 8000e48:	6021      	str	r1, [r4, #0]
    __HAL_I2C_ENABLE(hi2c);
 8000e4a:	6823      	ldr	r3, [r4, #0]
 8000e4c:	4313      	orrs	r3, r2
 8000e4e:	6023      	str	r3, [r4, #0]

    hi2c->State = HAL_I2C_STATE_READY;

    /* Process Unlocked */
    __HAL_UNLOCK(hi2c);
 8000e50:	2300      	movs	r3, #0
    hi2c->State = HAL_I2C_STATE_READY;
 8000e52:	5546      	strb	r6, [r0, r5]
    __HAL_UNLOCK(hi2c);
 8000e54:	55c3      	strb	r3, [r0, r7]

    return HAL_OK;
 8000e56:	2000      	movs	r0, #0
  }
  else
  {
    return HAL_BUSY;
  }
}
 8000e58:	bdf0      	pop	{r4, r5, r6, r7, pc}
    return HAL_BUSY;
 8000e5a:	2002      	movs	r0, #2
 8000e5c:	e7fc      	b.n	8000e58 <HAL_I2CEx_ConfigDigitalFilter+0x40>
 8000e5e:	46c0      	nop			; (mov r8, r8)
 8000e60:	fffff0ff 	.word	0xfffff0ff

08000e64 <HAL_I2CEx_EnableFastModePlus>:
{
  /* Check the parameter */
  assert_param(IS_I2C_FASTMODEPLUS(ConfigFastModePlus));

  /* Enable SYSCFG clock */
  __HAL_RCC_SYSCFG_CLK_ENABLE();
 8000e64:	2301      	movs	r3, #1
 8000e66:	4904      	ldr	r1, [pc, #16]	; (8000e78 <HAL_I2CEx_EnableFastModePlus+0x14>)
 8000e68:	6b4a      	ldr	r2, [r1, #52]	; 0x34
 8000e6a:	431a      	orrs	r2, r3
 8000e6c:	634a      	str	r2, [r1, #52]	; 0x34

  /* Enable fast mode plus driving capability for selected pin */
  SET_BIT(SYSCFG->CFGR2, (uint32_t)ConfigFastModePlus);
 8000e6e:	4a03      	ldr	r2, [pc, #12]	; (8000e7c <HAL_I2CEx_EnableFastModePlus+0x18>)
 8000e70:	6853      	ldr	r3, [r2, #4]
 8000e72:	4303      	orrs	r3, r0
 8000e74:	6053      	str	r3, [r2, #4]
}
 8000e76:	4770      	bx	lr
 8000e78:	40021000 	.word	0x40021000
 8000e7c:	40010000 	.word	0x40010000

08000e80 <HAL_RCC_GetSysClockFreq>:
  uint32_t sysclockfreq;

  tmpreg = RCC->CFGR;

  /* Get SYSCLK source -------------------------------------------------------*/
  switch (tmpreg & RCC_CFGR_SWS)
 8000e80:	230c      	movs	r3, #12
  tmpreg = RCC->CFGR;
 8000e82:	491c      	ldr	r1, [pc, #112]	; (8000ef4 <HAL_RCC_GetSysClockFreq+0x74>)
{
 8000e84:	b510      	push	{r4, lr}
  tmpreg = RCC->CFGR;
 8000e86:	68ca      	ldr	r2, [r1, #12]
  switch (tmpreg & RCC_CFGR_SWS)
 8000e88:	4013      	ands	r3, r2
 8000e8a:	2b08      	cmp	r3, #8
 8000e8c:	d00b      	beq.n	8000ea6 <HAL_RCC_GetSysClockFreq+0x26>
 8000e8e:	2b0c      	cmp	r3, #12
 8000e90:	d014      	beq.n	8000ebc <HAL_RCC_GetSysClockFreq+0x3c>
 8000e92:	2b04      	cmp	r3, #4
 8000e94:	d009      	beq.n	8000eaa <HAL_RCC_GetSysClockFreq+0x2a>
    }
    case RCC_SYSCLKSOURCE_STATUS_MSI:  /* MSI used as system clock source */
    default: /* MSI used as system clock */
    {
      msiclkrange = (RCC->ICSCR & RCC_ICSCR_MSIRANGE ) >> RCC_ICSCR_MSIRANGE_Pos;
      sysclockfreq = (32768U * (1UL << (msiclkrange + 1U)));
 8000e96:	2080      	movs	r0, #128	; 0x80
      msiclkrange = (RCC->ICSCR & RCC_ICSCR_MSIRANGE ) >> RCC_ICSCR_MSIRANGE_Pos;
 8000e98:	684b      	ldr	r3, [r1, #4]
      sysclockfreq = (32768U * (1UL << (msiclkrange + 1U)));
 8000e9a:	0200      	lsls	r0, r0, #8
      msiclkrange = (RCC->ICSCR & RCC_ICSCR_MSIRANGE ) >> RCC_ICSCR_MSIRANGE_Pos;
 8000e9c:	041b      	lsls	r3, r3, #16
 8000e9e:	0f5b      	lsrs	r3, r3, #29
      sysclockfreq = (32768U * (1UL << (msiclkrange + 1U)));
 8000ea0:	3301      	adds	r3, #1
 8000ea2:	4098      	lsls	r0, r3
      break;
    }
  }
  return sysclockfreq;
}
 8000ea4:	bd10      	pop	{r4, pc}
  switch (tmpreg & RCC_CFGR_SWS)
 8000ea6:	4814      	ldr	r0, [pc, #80]	; (8000ef8 <HAL_RCC_GetSysClockFreq+0x78>)
 8000ea8:	e7fc      	b.n	8000ea4 <HAL_RCC_GetSysClockFreq+0x24>
      if ((RCC->CR & RCC_CR_HSIDIVF) != 0U)
 8000eaa:	6808      	ldr	r0, [r1, #0]
        sysclockfreq =  HSI_VALUE;
 8000eac:	4b13      	ldr	r3, [pc, #76]	; (8000efc <HAL_RCC_GetSysClockFreq+0x7c>)
      if ((RCC->CR & RCC_CR_HSIDIVF) != 0U)
 8000eae:	06c0      	lsls	r0, r0, #27
        sysclockfreq =  HSI_VALUE;
 8000eb0:	17c0      	asrs	r0, r0, #31
 8000eb2:	4018      	ands	r0, r3
 8000eb4:	4b12      	ldr	r3, [pc, #72]	; (8000f00 <HAL_RCC_GetSysClockFreq+0x80>)
 8000eb6:	469c      	mov	ip, r3
 8000eb8:	4460      	add	r0, ip
 8000eba:	e7f3      	b.n	8000ea4 <HAL_RCC_GetSysClockFreq+0x24>
      pllm = PLLMulTable[(uint32_t)(tmpreg & RCC_CFGR_PLLMUL) >> RCC_CFGR_PLLMUL_Pos];
 8000ebc:	0293      	lsls	r3, r2, #10
 8000ebe:	4811      	ldr	r0, [pc, #68]	; (8000f04 <HAL_RCC_GetSysClockFreq+0x84>)
 8000ec0:	0f1b      	lsrs	r3, r3, #28
 8000ec2:	5cc0      	ldrb	r0, [r0, r3]
      plld = ((uint32_t)(tmpreg & RCC_CFGR_PLLDIV) >> RCC_CFGR_PLLDIV_Pos) + 1U;
 8000ec4:	0212      	lsls	r2, r2, #8
      if (__HAL_RCC_GET_PLL_OSCSOURCE() != RCC_PLLSOURCE_HSI)
 8000ec6:	68cb      	ldr	r3, [r1, #12]
      plld = ((uint32_t)(tmpreg & RCC_CFGR_PLLDIV) >> RCC_CFGR_PLLDIV_Pos) + 1U;
 8000ec8:	0f92      	lsrs	r2, r2, #30
 8000eca:	1c54      	adds	r4, r2, #1
      if (__HAL_RCC_GET_PLL_OSCSOURCE() != RCC_PLLSOURCE_HSI)
 8000ecc:	03db      	lsls	r3, r3, #15
 8000ece:	d40c      	bmi.n	8000eea <HAL_RCC_GetSysClockFreq+0x6a>
        if ((RCC->CR & RCC_CR_HSIDIVF) != 0U)
 8000ed0:	680b      	ldr	r3, [r1, #0]
 8000ed2:	06db      	lsls	r3, r3, #27
 8000ed4:	d50b      	bpl.n	8000eee <HAL_RCC_GetSysClockFreq+0x6e>
          pllvco = (uint32_t)((((uint64_t)(HSI_VALUE >> 2)) * (uint64_t)pllm) / (uint64_t)plld);
 8000ed6:	4a0c      	ldr	r2, [pc, #48]	; (8000f08 <HAL_RCC_GetSysClockFreq+0x88>)
         pllvco = (uint32_t)(((uint64_t)HSI_VALUE * (uint64_t)pllm) / (uint64_t)plld);
 8000ed8:	2300      	movs	r3, #0
 8000eda:	2100      	movs	r1, #0
 8000edc:	f7ff f9c0 	bl	8000260 <__aeabi_lmul>
 8000ee0:	0022      	movs	r2, r4
 8000ee2:	2300      	movs	r3, #0
 8000ee4:	f7ff f99c 	bl	8000220 <__aeabi_uldivmod>
 8000ee8:	e7dc      	b.n	8000ea4 <HAL_RCC_GetSysClockFreq+0x24>
        pllvco = (uint32_t)(((uint64_t)HSE_VALUE * (uint64_t)pllm) / (uint64_t)plld);
 8000eea:	4a03      	ldr	r2, [pc, #12]	; (8000ef8 <HAL_RCC_GetSysClockFreq+0x78>)
 8000eec:	e7f4      	b.n	8000ed8 <HAL_RCC_GetSysClockFreq+0x58>
         pllvco = (uint32_t)(((uint64_t)HSI_VALUE * (uint64_t)pllm) / (uint64_t)plld);
 8000eee:	4a04      	ldr	r2, [pc, #16]	; (8000f00 <HAL_RCC_GetSysClockFreq+0x80>)
 8000ef0:	e7f2      	b.n	8000ed8 <HAL_RCC_GetSysClockFreq+0x58>
 8000ef2:	46c0      	nop			; (mov r8, r8)
 8000ef4:	40021000 	.word	0x40021000
 8000ef8:	007a1200 	.word	0x007a1200
 8000efc:	ff48e500 	.word	0xff48e500
 8000f00:	00f42400 	.word	0x00f42400
 8000f04:	0800324c 	.word	0x0800324c
 8000f08:	003d0900 	.word	0x003d0900

08000f0c <HAL_RCC_OscConfig>:
{
 8000f0c:	b5f0      	push	{r4, r5, r6, r7, lr}
 8000f0e:	46d6      	mov	lr, sl
 8000f10:	464f      	mov	r7, r9
 8000f12:	4646      	mov	r6, r8
 8000f14:	b5c0      	push	{r6, r7, lr}
 8000f16:	0004      	movs	r4, r0
 8000f18:	b082      	sub	sp, #8
  if(RCC_OscInitStruct == NULL)
 8000f1a:	2800      	cmp	r0, #0
 8000f1c:	d100      	bne.n	8000f20 <HAL_RCC_OscConfig+0x14>
 8000f1e:	e146      	b.n	80011ae <HAL_RCC_OscConfig+0x2a2>
  sysclk_source = __HAL_RCC_GET_SYSCLK_SOURCE();
 8000f20:	4bc8      	ldr	r3, [pc, #800]	; (8001244 <HAL_RCC_OscConfig+0x338>)
 8000f22:	250c      	movs	r5, #12
 8000f24:	68da      	ldr	r2, [r3, #12]
  pll_config = __HAL_RCC_GET_PLL_OSCSOURCE();
 8000f26:	68de      	ldr	r6, [r3, #12]
 8000f28:	2380      	movs	r3, #128	; 0x80
 8000f2a:	025b      	lsls	r3, r3, #9
 8000f2c:	401e      	ands	r6, r3
  if(((RCC_OscInitStruct->OscillatorType) & RCC_OSCILLATORTYPE_HSE) == RCC_OSCILLATORTYPE_HSE)
 8000f2e:	6803      	ldr	r3, [r0, #0]
  sysclk_source = __HAL_RCC_GET_SYSCLK_SOURCE();
 8000f30:	4015      	ands	r5, r2
  if(((RCC_OscInitStruct->OscillatorType) & RCC_OSCILLATORTYPE_HSE) == RCC_OSCILLATORTYPE_HSE)
 8000f32:	07da      	lsls	r2, r3, #31
 8000f34:	d533      	bpl.n	8000f9e <HAL_RCC_OscConfig+0x92>
    if((sysclk_source == RCC_SYSCLKSOURCE_STATUS_HSE)
 8000f36:	2d08      	cmp	r5, #8
 8000f38:	d100      	bne.n	8000f3c <HAL_RCC_OscConfig+0x30>
 8000f3a:	e12f      	b.n	800119c <HAL_RCC_OscConfig+0x290>
       || ((sysclk_source == RCC_SYSCLKSOURCE_STATUS_PLLCLK) && (pll_config == RCC_PLLSOURCE_HSE)))
 8000f3c:	2d0c      	cmp	r5, #12
 8000f3e:	d100      	bne.n	8000f42 <HAL_RCC_OscConfig+0x36>
 8000f40:	e129      	b.n	8001196 <HAL_RCC_OscConfig+0x28a>
      __HAL_RCC_HSE_CONFIG(RCC_OscInitStruct->HSEState);
 8000f42:	2080      	movs	r0, #128	; 0x80
 8000f44:	6861      	ldr	r1, [r4, #4]
 8000f46:	0240      	lsls	r0, r0, #9
 8000f48:	4281      	cmp	r1, r0
 8000f4a:	d100      	bne.n	8000f4e <HAL_RCC_OscConfig+0x42>
 8000f4c:	e161      	b.n	8001212 <HAL_RCC_OscConfig+0x306>
 8000f4e:	22a0      	movs	r2, #160	; 0xa0
 8000f50:	02d2      	lsls	r2, r2, #11
 8000f52:	4291      	cmp	r1, r2
 8000f54:	d100      	bne.n	8000f58 <HAL_RCC_OscConfig+0x4c>
 8000f56:	e245      	b.n	80013e4 <HAL_RCC_OscConfig+0x4d8>
 8000f58:	4fba      	ldr	r7, [pc, #744]	; (8001244 <HAL_RCC_OscConfig+0x338>)
 8000f5a:	4bbb      	ldr	r3, [pc, #748]	; (8001248 <HAL_RCC_OscConfig+0x33c>)
 8000f5c:	683a      	ldr	r2, [r7, #0]
 8000f5e:	401a      	ands	r2, r3
 8000f60:	603a      	str	r2, [r7, #0]
 8000f62:	683b      	ldr	r3, [r7, #0]
 8000f64:	4ab9      	ldr	r2, [pc, #740]	; (800124c <HAL_RCC_OscConfig+0x340>)
 8000f66:	4003      	ands	r3, r0
 8000f68:	9301      	str	r3, [sp, #4]
 8000f6a:	9b01      	ldr	r3, [sp, #4]
 8000f6c:	683b      	ldr	r3, [r7, #0]
 8000f6e:	4013      	ands	r3, r2
 8000f70:	603b      	str	r3, [r7, #0]
      if(RCC_OscInitStruct->HSEState != RCC_HSE_OFF)
 8000f72:	2900      	cmp	r1, #0
 8000f74:	d000      	beq.n	8000f78 <HAL_RCC_OscConfig+0x6c>
 8000f76:	e150      	b.n	800121a <HAL_RCC_OscConfig+0x30e>
        tickstart = HAL_GetTick();
 8000f78:	f7ff fd5e 	bl	8000a38 <HAL_GetTick>
        while(__HAL_RCC_GET_FLAG(RCC_FLAG_HSERDY) != 0U)
 8000f7c:	2380      	movs	r3, #128	; 0x80
 8000f7e:	029b      	lsls	r3, r3, #10
        tickstart = HAL_GetTick();
 8000f80:	4680      	mov	r8, r0
        while(__HAL_RCC_GET_FLAG(RCC_FLAG_HSERDY) != 0U)
 8000f82:	4699      	mov	r9, r3
 8000f84:	e006      	b.n	8000f94 <HAL_RCC_OscConfig+0x88>
           if((HAL_GetTick() - tickstart ) > HSE_TIMEOUT_VALUE)
 8000f86:	f7ff fd57 	bl	8000a38 <HAL_GetTick>
 8000f8a:	4643      	mov	r3, r8
 8000f8c:	1ac0      	subs	r0, r0, r3
 8000f8e:	2864      	cmp	r0, #100	; 0x64
 8000f90:	d900      	bls.n	8000f94 <HAL_RCC_OscConfig+0x88>
 8000f92:	e1cc      	b.n	800132e <HAL_RCC_OscConfig+0x422>
        while(__HAL_RCC_GET_FLAG(RCC_FLAG_HSERDY) != 0U)
 8000f94:	464a      	mov	r2, r9
 8000f96:	683b      	ldr	r3, [r7, #0]
 8000f98:	4213      	tst	r3, r2
 8000f9a:	d1f4      	bne.n	8000f86 <HAL_RCC_OscConfig+0x7a>
 8000f9c:	6823      	ldr	r3, [r4, #0]
  if(((RCC_OscInitStruct->OscillatorType) & RCC_OSCILLATORTYPE_HSI) == RCC_OSCILLATORTYPE_HSI)
 8000f9e:	079a      	lsls	r2, r3, #30
 8000fa0:	d527      	bpl.n	8000ff2 <HAL_RCC_OscConfig+0xe6>
    hsi_state = RCC_OscInitStruct->HSIState;
 8000fa2:	68e3      	ldr	r3, [r4, #12]
    if((sysclk_source == RCC_SYSCLKSOURCE_STATUS_HSI)
 8000fa4:	2d04      	cmp	r5, #4
 8000fa6:	d100      	bne.n	8000faa <HAL_RCC_OscConfig+0x9e>
 8000fa8:	e16b      	b.n	8001282 <HAL_RCC_OscConfig+0x376>
       || ((sysclk_source == RCC_SYSCLKSOURCE_STATUS_PLLCLK) && (pll_config == RCC_PLLSOURCE_HSI)))
 8000faa:	2d0c      	cmp	r5, #12
 8000fac:	d100      	bne.n	8000fb0 <HAL_RCC_OscConfig+0xa4>
 8000fae:	e165      	b.n	800127c <HAL_RCC_OscConfig+0x370>
        __HAL_RCC_HSI_CONFIG(hsi_state);
 8000fb0:	4ea4      	ldr	r6, [pc, #656]	; (8001244 <HAL_RCC_OscConfig+0x338>)
      if(hsi_state != RCC_HSI_OFF)
 8000fb2:	2b00      	cmp	r3, #0
 8000fb4:	d100      	bne.n	8000fb8 <HAL_RCC_OscConfig+0xac>
 8000fb6:	e1d1      	b.n	800135c <HAL_RCC_OscConfig+0x450>
        __HAL_RCC_HSI_CONFIG(hsi_state);
 8000fb8:	2109      	movs	r1, #9
 8000fba:	6832      	ldr	r2, [r6, #0]
 8000fbc:	438a      	bics	r2, r1
 8000fbe:	4313      	orrs	r3, r2
 8000fc0:	6033      	str	r3, [r6, #0]
        tickstart = HAL_GetTick();
 8000fc2:	f7ff fd39 	bl	8000a38 <HAL_GetTick>
        while(__HAL_RCC_GET_FLAG(RCC_FLAG_HSIRDY) == 0U)
 8000fc6:	2304      	movs	r3, #4
        tickstart = HAL_GetTick();
 8000fc8:	0007      	movs	r7, r0
        while(__HAL_RCC_GET_FLAG(RCC_FLAG_HSIRDY) == 0U)
 8000fca:	4698      	mov	r8, r3
 8000fcc:	e005      	b.n	8000fda <HAL_RCC_OscConfig+0xce>
          if((HAL_GetTick() - tickstart ) > HSI_TIMEOUT_VALUE)
 8000fce:	f7ff fd33 	bl	8000a38 <HAL_GetTick>
 8000fd2:	1bc0      	subs	r0, r0, r7
 8000fd4:	2802      	cmp	r0, #2
 8000fd6:	d900      	bls.n	8000fda <HAL_RCC_OscConfig+0xce>
 8000fd8:	e1a9      	b.n	800132e <HAL_RCC_OscConfig+0x422>
        while(__HAL_RCC_GET_FLAG(RCC_FLAG_HSIRDY) == 0U)
 8000fda:	4642      	mov	r2, r8
 8000fdc:	6833      	ldr	r3, [r6, #0]
 8000fde:	421a      	tst	r2, r3
 8000fe0:	d0f5      	beq.n	8000fce <HAL_RCC_OscConfig+0xc2>
        __HAL_RCC_HSI_CALIBRATIONVALUE_ADJUST(RCC_OscInitStruct->HSICalibrationValue);
 8000fe2:	6872      	ldr	r2, [r6, #4]
 8000fe4:	6923      	ldr	r3, [r4, #16]
 8000fe6:	499a      	ldr	r1, [pc, #616]	; (8001250 <HAL_RCC_OscConfig+0x344>)
 8000fe8:	021b      	lsls	r3, r3, #8
 8000fea:	400a      	ands	r2, r1
 8000fec:	4313      	orrs	r3, r2
 8000fee:	6073      	str	r3, [r6, #4]
 8000ff0:	6823      	ldr	r3, [r4, #0]
  if(((RCC_OscInitStruct->OscillatorType) & RCC_OSCILLATORTYPE_MSI) == RCC_OSCILLATORTYPE_MSI)
 8000ff2:	06da      	lsls	r2, r3, #27
 8000ff4:	d52b      	bpl.n	800104e <HAL_RCC_OscConfig+0x142>
    if(sysclk_source == RCC_CFGR_SWS_MSI)
 8000ff6:	2d00      	cmp	r5, #0
 8000ff8:	d100      	bne.n	8000ffc <HAL_RCC_OscConfig+0xf0>
 8000ffa:	e0df      	b.n	80011bc <HAL_RCC_OscConfig+0x2b0>
      if(RCC_OscInitStruct->MSIState != RCC_MSI_OFF)
 8000ffc:	69e3      	ldr	r3, [r4, #28]
        __HAL_RCC_MSI_ENABLE();
 8000ffe:	4e91      	ldr	r6, [pc, #580]	; (8001244 <HAL_RCC_OscConfig+0x338>)
      if(RCC_OscInitStruct->MSIState != RCC_MSI_OFF)
 8001000:	2b00      	cmp	r3, #0
 8001002:	d100      	bne.n	8001006 <HAL_RCC_OscConfig+0xfa>
 8001004:	e1bf      	b.n	8001386 <HAL_RCC_OscConfig+0x47a>
        __HAL_RCC_MSI_ENABLE();
 8001006:	2380      	movs	r3, #128	; 0x80
 8001008:	6832      	ldr	r2, [r6, #0]
 800100a:	005b      	lsls	r3, r3, #1
 800100c:	4313      	orrs	r3, r2
 800100e:	6033      	str	r3, [r6, #0]
        tickstart = HAL_GetTick();
 8001010:	f7ff fd12 	bl	8000a38 <HAL_GetTick>
        while(__HAL_RCC_GET_FLAG(RCC_FLAG_MSIRDY) == 0U)
 8001014:	2380      	movs	r3, #128	; 0x80
 8001016:	009b      	lsls	r3, r3, #2
        tickstart = HAL_GetTick();
 8001018:	0007      	movs	r7, r0
        while(__HAL_RCC_GET_FLAG(RCC_FLAG_MSIRDY) == 0U)
 800101a:	4698      	mov	r8, r3
 800101c:	e005      	b.n	800102a <HAL_RCC_OscConfig+0x11e>
          if((HAL_GetTick() - tickstart) > MSI_TIMEOUT_VALUE)
 800101e:	f7ff fd0b 	bl	8000a38 <HAL_GetTick>
 8001022:	1bc0      	subs	r0, r0, r7
 8001024:	2802      	cmp	r0, #2
 8001026:	d900      	bls.n	800102a <HAL_RCC_OscConfig+0x11e>
 8001028:	e181      	b.n	800132e <HAL_RCC_OscConfig+0x422>
        while(__HAL_RCC_GET_FLAG(RCC_FLAG_MSIRDY) == 0U)
 800102a:	4642      	mov	r2, r8
 800102c:	6833      	ldr	r3, [r6, #0]
 800102e:	4213      	tst	r3, r2
 8001030:	d0f5      	beq.n	800101e <HAL_RCC_OscConfig+0x112>
        __HAL_RCC_MSI_RANGE_CONFIG(RCC_OscInitStruct->MSIClockRange);
 8001032:	6873      	ldr	r3, [r6, #4]
 8001034:	4a87      	ldr	r2, [pc, #540]	; (8001254 <HAL_RCC_OscConfig+0x348>)
 8001036:	4013      	ands	r3, r2
 8001038:	6a62      	ldr	r2, [r4, #36]	; 0x24
 800103a:	4313      	orrs	r3, r2
 800103c:	6073      	str	r3, [r6, #4]
        __HAL_RCC_MSI_CALIBRATIONVALUE_ADJUST(RCC_OscInitStruct->MSICalibrationValue);
 800103e:	6872      	ldr	r2, [r6, #4]
 8001040:	6a23      	ldr	r3, [r4, #32]
 8001042:	0212      	lsls	r2, r2, #8
 8001044:	061b      	lsls	r3, r3, #24
 8001046:	0a12      	lsrs	r2, r2, #8
 8001048:	4313      	orrs	r3, r2
 800104a:	6073      	str	r3, [r6, #4]
 800104c:	6823      	ldr	r3, [r4, #0]
  if(((RCC_OscInitStruct->OscillatorType) & RCC_OSCILLATORTYPE_LSI) == RCC_OSCILLATORTYPE_LSI)
 800104e:	071a      	lsls	r2, r3, #28
 8001050:	d519      	bpl.n	8001086 <HAL_RCC_OscConfig+0x17a>
    if(RCC_OscInitStruct->LSIState != RCC_LSI_OFF)
 8001052:	6963      	ldr	r3, [r4, #20]
      __HAL_RCC_LSI_ENABLE();
 8001054:	4e7b      	ldr	r6, [pc, #492]	; (8001244 <HAL_RCC_OscConfig+0x338>)
    if(RCC_OscInitStruct->LSIState != RCC_LSI_OFF)
 8001056:	2b00      	cmp	r3, #0
 8001058:	d100      	bne.n	800105c <HAL_RCC_OscConfig+0x150>
 800105a:	e16a      	b.n	8001332 <HAL_RCC_OscConfig+0x426>
      __HAL_RCC_LSI_ENABLE();
 800105c:	2201      	movs	r2, #1
 800105e:	6d33      	ldr	r3, [r6, #80]	; 0x50
 8001060:	4313      	orrs	r3, r2
 8001062:	6533      	str	r3, [r6, #80]	; 0x50
      tickstart = HAL_GetTick();
 8001064:	f7ff fce8 	bl	8000a38 <HAL_GetTick>
      while(__HAL_RCC_GET_FLAG(RCC_FLAG_LSIRDY) == 0U)
 8001068:	2302      	movs	r3, #2
      tickstart = HAL_GetTick();
 800106a:	0007      	movs	r7, r0
      while(__HAL_RCC_GET_FLAG(RCC_FLAG_LSIRDY) == 0U)
 800106c:	4698      	mov	r8, r3
 800106e:	e005      	b.n	800107c <HAL_RCC_OscConfig+0x170>
        if((HAL_GetTick() - tickstart ) > LSI_TIMEOUT_VALUE)
 8001070:	f7ff fce2 	bl	8000a38 <HAL_GetTick>
 8001074:	1bc0      	subs	r0, r0, r7
 8001076:	2802      	cmp	r0, #2
 8001078:	d900      	bls.n	800107c <HAL_RCC_OscConfig+0x170>
 800107a:	e158      	b.n	800132e <HAL_RCC_OscConfig+0x422>
      while(__HAL_RCC_GET_FLAG(RCC_FLAG_LSIRDY) == 0U)
 800107c:	4642      	mov	r2, r8
 800107e:	6d33      	ldr	r3, [r6, #80]	; 0x50
 8001080:	421a      	tst	r2, r3
 8001082:	d0f5      	beq.n	8001070 <HAL_RCC_OscConfig+0x164>
 8001084:	6823      	ldr	r3, [r4, #0]
  if(((RCC_OscInitStruct->OscillatorType) & RCC_OSCILLATORTYPE_LSE) == RCC_OSCILLATORTYPE_LSE)
 8001086:	075a      	lsls	r2, r3, #29
 8001088:	d543      	bpl.n	8001112 <HAL_RCC_OscConfig+0x206>
    if(__HAL_RCC_PWR_IS_CLK_DISABLED())
 800108a:	2380      	movs	r3, #128	; 0x80
    FlagStatus       pwrclkchanged = RESET;
 800108c:	2000      	movs	r0, #0
    if(__HAL_RCC_PWR_IS_CLK_DISABLED())
 800108e:	4a6d      	ldr	r2, [pc, #436]	; (8001244 <HAL_RCC_OscConfig+0x338>)
 8001090:	055b      	lsls	r3, r3, #21
 8001092:	6b91      	ldr	r1, [r2, #56]	; 0x38
    FlagStatus       pwrclkchanged = RESET;
 8001094:	4682      	mov	sl, r0
    if(__HAL_RCC_PWR_IS_CLK_DISABLED())
 8001096:	4219      	tst	r1, r3
 8001098:	d104      	bne.n	80010a4 <HAL_RCC_OscConfig+0x198>
      __HAL_RCC_PWR_CLK_ENABLE();
 800109a:	6b91      	ldr	r1, [r2, #56]	; 0x38
 800109c:	430b      	orrs	r3, r1
 800109e:	6393      	str	r3, [r2, #56]	; 0x38
      pwrclkchanged = SET;
 80010a0:	2301      	movs	r3, #1
 80010a2:	469a      	mov	sl, r3
    if(HAL_IS_BIT_CLR(PWR->CR, PWR_CR_DBP))
 80010a4:	2780      	movs	r7, #128	; 0x80
 80010a6:	4e6c      	ldr	r6, [pc, #432]	; (8001258 <HAL_RCC_OscConfig+0x34c>)
 80010a8:	007f      	lsls	r7, r7, #1
 80010aa:	6833      	ldr	r3, [r6, #0]
 80010ac:	423b      	tst	r3, r7
 80010ae:	d100      	bne.n	80010b2 <HAL_RCC_OscConfig+0x1a6>
 80010b0:	e12d      	b.n	800130e <HAL_RCC_OscConfig+0x402>
    __HAL_RCC_LSE_CONFIG(RCC_OscInitStruct->LSEState);
 80010b2:	2280      	movs	r2, #128	; 0x80
 80010b4:	68a3      	ldr	r3, [r4, #8]
 80010b6:	0052      	lsls	r2, r2, #1
 80010b8:	4293      	cmp	r3, r2
 80010ba:	d100      	bne.n	80010be <HAL_RCC_OscConfig+0x1b2>
 80010bc:	e1d7      	b.n	800146e <HAL_RCC_OscConfig+0x562>
 80010be:	2b00      	cmp	r3, #0
 80010c0:	d100      	bne.n	80010c4 <HAL_RCC_OscConfig+0x1b8>
 80010c2:	e108      	b.n	80012d6 <HAL_RCC_OscConfig+0x3ca>
 80010c4:	21a0      	movs	r1, #160	; 0xa0
 80010c6:	00c9      	lsls	r1, r1, #3
 80010c8:	428b      	cmp	r3, r1
 80010ca:	d100      	bne.n	80010ce <HAL_RCC_OscConfig+0x1c2>
 80010cc:	e1f1      	b.n	80014b2 <HAL_RCC_OscConfig+0x5a6>
 80010ce:	4b5d      	ldr	r3, [pc, #372]	; (8001244 <HAL_RCC_OscConfig+0x338>)
 80010d0:	4962      	ldr	r1, [pc, #392]	; (800125c <HAL_RCC_OscConfig+0x350>)
 80010d2:	6d1a      	ldr	r2, [r3, #80]	; 0x50
 80010d4:	400a      	ands	r2, r1
 80010d6:	651a      	str	r2, [r3, #80]	; 0x50
 80010d8:	6d1a      	ldr	r2, [r3, #80]	; 0x50
 80010da:	4961      	ldr	r1, [pc, #388]	; (8001260 <HAL_RCC_OscConfig+0x354>)
 80010dc:	400a      	ands	r2, r1
 80010de:	651a      	str	r2, [r3, #80]	; 0x50
      tickstart = HAL_GetTick();
 80010e0:	f7ff fcaa 	bl	8000a38 <HAL_GetTick>
      while(__HAL_RCC_GET_FLAG(RCC_FLAG_LSERDY) == 0U)
 80010e4:	2780      	movs	r7, #128	; 0x80
 80010e6:	4b57      	ldr	r3, [pc, #348]	; (8001244 <HAL_RCC_OscConfig+0x338>)
      tickstart = HAL_GetTick();
 80010e8:	0006      	movs	r6, r0
      while(__HAL_RCC_GET_FLAG(RCC_FLAG_LSERDY) == 0U)
 80010ea:	4698      	mov	r8, r3
        if((HAL_GetTick() - tickstart ) > RCC_LSE_TIMEOUT_VALUE)
 80010ec:	4b5d      	ldr	r3, [pc, #372]	; (8001264 <HAL_RCC_OscConfig+0x358>)
      while(__HAL_RCC_GET_FLAG(RCC_FLAG_LSERDY) == 0U)
 80010ee:	00bf      	lsls	r7, r7, #2
        if((HAL_GetTick() - tickstart ) > RCC_LSE_TIMEOUT_VALUE)
 80010f0:	4699      	mov	r9, r3
      while(__HAL_RCC_GET_FLAG(RCC_FLAG_LSERDY) == 0U)
 80010f2:	e005      	b.n	8001100 <HAL_RCC_OscConfig+0x1f4>
        if((HAL_GetTick() - tickstart ) > RCC_LSE_TIMEOUT_VALUE)
 80010f4:	f7ff fca0 	bl	8000a38 <HAL_GetTick>
 80010f8:	1b80      	subs	r0, r0, r6
 80010fa:	4548      	cmp	r0, r9
 80010fc:	d900      	bls.n	8001100 <HAL_RCC_OscConfig+0x1f4>
 80010fe:	e116      	b.n	800132e <HAL_RCC_OscConfig+0x422>
      while(__HAL_RCC_GET_FLAG(RCC_FLAG_LSERDY) == 0U)
 8001100:	4643      	mov	r3, r8
 8001102:	6d1b      	ldr	r3, [r3, #80]	; 0x50
 8001104:	423b      	tst	r3, r7
 8001106:	d0f5      	beq.n	80010f4 <HAL_RCC_OscConfig+0x1e8>
    if(pwrclkchanged == SET)
 8001108:	4653      	mov	r3, sl
 800110a:	2b01      	cmp	r3, #1
 800110c:	d100      	bne.n	8001110 <HAL_RCC_OscConfig+0x204>
 800110e:	e173      	b.n	80013f8 <HAL_RCC_OscConfig+0x4ec>
 8001110:	6823      	ldr	r3, [r4, #0]
  if(((RCC_OscInitStruct->OscillatorType) & RCC_OSCILLATORTYPE_HSI48) == RCC_OSCILLATORTYPE_HSI48)
 8001112:	069b      	lsls	r3, r3, #26
 8001114:	d520      	bpl.n	8001158 <HAL_RCC_OscConfig+0x24c>
      if(RCC_OscInitStruct->HSI48State != RCC_HSI48_OFF)
 8001116:	69a3      	ldr	r3, [r4, #24]
        __HAL_RCC_HSI48_ENABLE();
 8001118:	4e4a      	ldr	r6, [pc, #296]	; (8001244 <HAL_RCC_OscConfig+0x338>)
      if(RCC_OscInitStruct->HSI48State != RCC_HSI48_OFF)
 800111a:	2b00      	cmp	r3, #0
 800111c:	d100      	bne.n	8001120 <HAL_RCC_OscConfig+0x214>
 800111e:	e148      	b.n	80013b2 <HAL_RCC_OscConfig+0x4a6>
        __HAL_RCC_HSI48_ENABLE();
 8001120:	2101      	movs	r1, #1
 8001122:	68b2      	ldr	r2, [r6, #8]
        while(__HAL_RCC_GET_FLAG(RCC_FLAG_HSI48RDY) == 0U)
 8001124:	2702      	movs	r7, #2
        __HAL_RCC_HSI48_ENABLE();
 8001126:	430a      	orrs	r2, r1
 8001128:	60b2      	str	r2, [r6, #8]
 800112a:	6b73      	ldr	r3, [r6, #52]	; 0x34
 800112c:	4a4e      	ldr	r2, [pc, #312]	; (8001268 <HAL_RCC_OscConfig+0x35c>)
 800112e:	430b      	orrs	r3, r1
 8001130:	6373      	str	r3, [r6, #52]	; 0x34
 8001132:	2380      	movs	r3, #128	; 0x80
 8001134:	6a11      	ldr	r1, [r2, #32]
 8001136:	019b      	lsls	r3, r3, #6
 8001138:	430b      	orrs	r3, r1
 800113a:	6213      	str	r3, [r2, #32]
        tickstart = HAL_GetTick();
 800113c:	f7ff fc7c 	bl	8000a38 <HAL_GetTick>
 8001140:	4680      	mov	r8, r0
        while(__HAL_RCC_GET_FLAG(RCC_FLAG_HSI48RDY) == 0U)
 8001142:	e006      	b.n	8001152 <HAL_RCC_OscConfig+0x246>
          if((HAL_GetTick() - tickstart) > HSI48_TIMEOUT_VALUE)
 8001144:	f7ff fc78 	bl	8000a38 <HAL_GetTick>
 8001148:	4643      	mov	r3, r8
 800114a:	1ac0      	subs	r0, r0, r3
 800114c:	2802      	cmp	r0, #2
 800114e:	d900      	bls.n	8001152 <HAL_RCC_OscConfig+0x246>
 8001150:	e0ed      	b.n	800132e <HAL_RCC_OscConfig+0x422>
        while(__HAL_RCC_GET_FLAG(RCC_FLAG_HSI48RDY) == 0U)
 8001152:	68b3      	ldr	r3, [r6, #8]
 8001154:	421f      	tst	r7, r3
 8001156:	d0f5      	beq.n	8001144 <HAL_RCC_OscConfig+0x238>
  if ((RCC_OscInitStruct->PLL.PLLState) != RCC_PLL_NONE)
 8001158:	6aa3      	ldr	r3, [r4, #40]	; 0x28
 800115a:	2b00      	cmp	r3, #0
 800115c:	d019      	beq.n	8001192 <HAL_RCC_OscConfig+0x286>
    if(sysclk_source != RCC_SYSCLKSOURCE_STATUS_PLLCLK)
 800115e:	2d0c      	cmp	r5, #12
 8001160:	d100      	bne.n	8001164 <HAL_RCC_OscConfig+0x258>
 8001162:	e189      	b.n	8001478 <HAL_RCC_OscConfig+0x56c>
      if((RCC_OscInitStruct->PLL.PLLState) == RCC_PLL_ON)
 8001164:	2b02      	cmp	r3, #2
 8001166:	d100      	bne.n	800116a <HAL_RCC_OscConfig+0x25e>
 8001168:	e14d      	b.n	8001406 <HAL_RCC_OscConfig+0x4fa>
        __HAL_RCC_PLL_DISABLE();
 800116a:	4c36      	ldr	r4, [pc, #216]	; (8001244 <HAL_RCC_OscConfig+0x338>)
 800116c:	4a3f      	ldr	r2, [pc, #252]	; (800126c <HAL_RCC_OscConfig+0x360>)
 800116e:	6823      	ldr	r3, [r4, #0]
        while(__HAL_RCC_GET_FLAG(RCC_FLAG_PLLRDY)  != 0U)
 8001170:	2680      	movs	r6, #128	; 0x80
        __HAL_RCC_PLL_DISABLE();
 8001172:	4013      	ands	r3, r2
 8001174:	6023      	str	r3, [r4, #0]
        tickstart = HAL_GetTick();
 8001176:	f7ff fc5f 	bl	8000a38 <HAL_GetTick>
        while(__HAL_RCC_GET_FLAG(RCC_FLAG_PLLRDY)  != 0U)
 800117a:	04b6      	lsls	r6, r6, #18
        tickstart = HAL_GetTick();
 800117c:	0005      	movs	r5, r0
        while(__HAL_RCC_GET_FLAG(RCC_FLAG_PLLRDY)  != 0U)
 800117e:	e005      	b.n	800118c <HAL_RCC_OscConfig+0x280>
          if((HAL_GetTick() - tickstart ) > PLL_TIMEOUT_VALUE)
 8001180:	f7ff fc5a 	bl	8000a38 <HAL_GetTick>
 8001184:	1b40      	subs	r0, r0, r5
 8001186:	2802      	cmp	r0, #2
 8001188:	d900      	bls.n	800118c <HAL_RCC_OscConfig+0x280>
 800118a:	e0d0      	b.n	800132e <HAL_RCC_OscConfig+0x422>
        while(__HAL_RCC_GET_FLAG(RCC_FLAG_PLLRDY)  != 0U)
 800118c:	6823      	ldr	r3, [r4, #0]
 800118e:	4233      	tst	r3, r6
 8001190:	d1f6      	bne.n	8001180 <HAL_RCC_OscConfig+0x274>
  return HAL_OK;
 8001192:	2000      	movs	r0, #0
 8001194:	e00c      	b.n	80011b0 <HAL_RCC_OscConfig+0x2a4>
       || ((sysclk_source == RCC_SYSCLKSOURCE_STATUS_PLLCLK) && (pll_config == RCC_PLLSOURCE_HSE)))
 8001196:	2e00      	cmp	r6, #0
 8001198:	d100      	bne.n	800119c <HAL_RCC_OscConfig+0x290>
 800119a:	e6d2      	b.n	8000f42 <HAL_RCC_OscConfig+0x36>
      if((__HAL_RCC_GET_FLAG(RCC_FLAG_HSERDY) != 0U) && (RCC_OscInitStruct->HSEState == RCC_HSE_OFF))
 800119c:	4a29      	ldr	r2, [pc, #164]	; (8001244 <HAL_RCC_OscConfig+0x338>)
 800119e:	6812      	ldr	r2, [r2, #0]
 80011a0:	0392      	lsls	r2, r2, #14
 80011a2:	d400      	bmi.n	80011a6 <HAL_RCC_OscConfig+0x29a>
 80011a4:	e6fb      	b.n	8000f9e <HAL_RCC_OscConfig+0x92>
 80011a6:	6862      	ldr	r2, [r4, #4]
 80011a8:	2a00      	cmp	r2, #0
 80011aa:	d000      	beq.n	80011ae <HAL_RCC_OscConfig+0x2a2>
 80011ac:	e6f7      	b.n	8000f9e <HAL_RCC_OscConfig+0x92>
        return HAL_ERROR;
 80011ae:	2001      	movs	r0, #1
}
 80011b0:	b002      	add	sp, #8
 80011b2:	bce0      	pop	{r5, r6, r7}
 80011b4:	46ba      	mov	sl, r7
 80011b6:	46b1      	mov	r9, r6
 80011b8:	46a8      	mov	r8, r5
 80011ba:	bdf0      	pop	{r4, r5, r6, r7, pc}
      if((__HAL_RCC_GET_FLAG(RCC_FLAG_MSIRDY) != 0U) && (RCC_OscInitStruct->MSIState == RCC_MSI_OFF))
 80011bc:	4b21      	ldr	r3, [pc, #132]	; (8001244 <HAL_RCC_OscConfig+0x338>)
 80011be:	681b      	ldr	r3, [r3, #0]
 80011c0:	059b      	lsls	r3, r3, #22
 80011c2:	d502      	bpl.n	80011ca <HAL_RCC_OscConfig+0x2be>
 80011c4:	69e3      	ldr	r3, [r4, #28]
 80011c6:	2b00      	cmp	r3, #0
 80011c8:	d0f1      	beq.n	80011ae <HAL_RCC_OscConfig+0x2a2>
        __HAL_RCC_MSI_RANGE_CONFIG(RCC_OscInitStruct->MSIClockRange);
 80011ca:	4a1e      	ldr	r2, [pc, #120]	; (8001244 <HAL_RCC_OscConfig+0x338>)
 80011cc:	4821      	ldr	r0, [pc, #132]	; (8001254 <HAL_RCC_OscConfig+0x348>)
 80011ce:	6851      	ldr	r1, [r2, #4]
 80011d0:	6a63      	ldr	r3, [r4, #36]	; 0x24
 80011d2:	4001      	ands	r1, r0
 80011d4:	4319      	orrs	r1, r3
 80011d6:	6051      	str	r1, [r2, #4]
        __HAL_RCC_MSI_CALIBRATIONVALUE_ADJUST(RCC_OscInitStruct->MSICalibrationValue);
 80011d8:	6850      	ldr	r0, [r2, #4]
 80011da:	6a21      	ldr	r1, [r4, #32]
 80011dc:	0200      	lsls	r0, r0, #8
 80011de:	0a00      	lsrs	r0, r0, #8
 80011e0:	0609      	lsls	r1, r1, #24
 80011e2:	4301      	orrs	r1, r0
 80011e4:	6051      	str	r1, [r2, #4]
                           >> AHBPrescTable[((RCC->CFGR & RCC_CFGR_HPRE) >> RCC_CFGR_HPRE_Pos)];
 80011e6:	68d1      	ldr	r1, [r2, #12]
        SystemCoreClock =  (32768U * (1UL << ((RCC_OscInitStruct->MSIClockRange >> RCC_ICSCR_MSIRANGE_Pos) + 1U)))
 80011e8:	2280      	movs	r2, #128	; 0x80
 80011ea:	0b5b      	lsrs	r3, r3, #13
 80011ec:	3301      	adds	r3, #1
 80011ee:	0212      	lsls	r2, r2, #8
 80011f0:	409a      	lsls	r2, r3
 80011f2:	0013      	movs	r3, r2
                           >> AHBPrescTable[((RCC->CFGR & RCC_CFGR_HPRE) >> RCC_CFGR_HPRE_Pos)];
 80011f4:	060a      	lsls	r2, r1, #24
 80011f6:	491e      	ldr	r1, [pc, #120]	; (8001270 <HAL_RCC_OscConfig+0x364>)
 80011f8:	0f12      	lsrs	r2, r2, #28
 80011fa:	5c8a      	ldrb	r2, [r1, r2]
 80011fc:	40d3      	lsrs	r3, r2
        SystemCoreClock =  (32768U * (1UL << ((RCC_OscInitStruct->MSIClockRange >> RCC_ICSCR_MSIRANGE_Pos) + 1U)))
 80011fe:	4a1d      	ldr	r2, [pc, #116]	; (8001274 <HAL_RCC_OscConfig+0x368>)
 8001200:	6013      	str	r3, [r2, #0]
        status = HAL_InitTick (uwTickPrio);
 8001202:	4b1d      	ldr	r3, [pc, #116]	; (8001278 <HAL_RCC_OscConfig+0x36c>)
 8001204:	6818      	ldr	r0, [r3, #0]
 8001206:	f7ff fbd1 	bl	80009ac <HAL_InitTick>
        if(status != HAL_OK)
 800120a:	2800      	cmp	r0, #0
 800120c:	d1d0      	bne.n	80011b0 <HAL_RCC_OscConfig+0x2a4>
 800120e:	6823      	ldr	r3, [r4, #0]
 8001210:	e71d      	b.n	800104e <HAL_RCC_OscConfig+0x142>
      __HAL_RCC_HSE_CONFIG(RCC_OscInitStruct->HSEState);
 8001212:	4a0c      	ldr	r2, [pc, #48]	; (8001244 <HAL_RCC_OscConfig+0x338>)
 8001214:	6813      	ldr	r3, [r2, #0]
 8001216:	430b      	orrs	r3, r1
 8001218:	6013      	str	r3, [r2, #0]
        tickstart = HAL_GetTick();
 800121a:	f7ff fc0d 	bl	8000a38 <HAL_GetTick>
        while(__HAL_RCC_GET_FLAG(RCC_FLAG_HSERDY) == 0U)
 800121e:	4b09      	ldr	r3, [pc, #36]	; (8001244 <HAL_RCC_OscConfig+0x338>)
        tickstart = HAL_GetTick();
 8001220:	0007      	movs	r7, r0
        while(__HAL_RCC_GET_FLAG(RCC_FLAG_HSERDY) == 0U)
 8001222:	4699      	mov	r9, r3
 8001224:	2380      	movs	r3, #128	; 0x80
 8001226:	029b      	lsls	r3, r3, #10
 8001228:	4698      	mov	r8, r3
 800122a:	e004      	b.n	8001236 <HAL_RCC_OscConfig+0x32a>
          if((HAL_GetTick() - tickstart ) > HSE_TIMEOUT_VALUE)
 800122c:	f7ff fc04 	bl	8000a38 <HAL_GetTick>
 8001230:	1bc0      	subs	r0, r0, r7
 8001232:	2864      	cmp	r0, #100	; 0x64
 8001234:	d87b      	bhi.n	800132e <HAL_RCC_OscConfig+0x422>
        while(__HAL_RCC_GET_FLAG(RCC_FLAG_HSERDY) == 0U)
 8001236:	464b      	mov	r3, r9
 8001238:	4642      	mov	r2, r8
 800123a:	681b      	ldr	r3, [r3, #0]
 800123c:	4213      	tst	r3, r2
 800123e:	d0f5      	beq.n	800122c <HAL_RCC_OscConfig+0x320>
 8001240:	6823      	ldr	r3, [r4, #0]
 8001242:	e6ac      	b.n	8000f9e <HAL_RCC_OscConfig+0x92>
 8001244:	40021000 	.word	0x40021000
 8001248:	fffeffff 	.word	0xfffeffff
 800124c:	fffbffff 	.word	0xfffbffff
 8001250:	ffffe0ff 	.word	0xffffe0ff
 8001254:	ffff1fff 	.word	0xffff1fff
 8001258:	40007000 	.word	0x40007000
 800125c:	fffffeff 	.word	0xfffffeff
 8001260:	fffffbff 	.word	0xfffffbff
 8001264:	00001388 	.word	0x00001388
 8001268:	40010000 	.word	0x40010000
 800126c:	feffffff 	.word	0xfeffffff
 8001270:	0800323c 	.word	0x0800323c
 8001274:	20000000 	.word	0x20000000
 8001278:	20000008 	.word	0x20000008
       || ((sysclk_source == RCC_SYSCLKSOURCE_STATUS_PLLCLK) && (pll_config == RCC_PLLSOURCE_HSI)))
 800127c:	2e00      	cmp	r6, #0
 800127e:	d000      	beq.n	8001282 <HAL_RCC_OscConfig+0x376>
 8001280:	e696      	b.n	8000fb0 <HAL_RCC_OscConfig+0xa4>
      if((__HAL_RCC_GET_FLAG(RCC_FLAG_HSIRDY) != 0U) && (hsi_state == RCC_HSI_OFF))
 8001282:	4a91      	ldr	r2, [pc, #580]	; (80014c8 <HAL_RCC_OscConfig+0x5bc>)
 8001284:	6812      	ldr	r2, [r2, #0]
 8001286:	0752      	lsls	r2, r2, #29
 8001288:	d502      	bpl.n	8001290 <HAL_RCC_OscConfig+0x384>
 800128a:	2b00      	cmp	r3, #0
 800128c:	d100      	bne.n	8001290 <HAL_RCC_OscConfig+0x384>
 800128e:	e78e      	b.n	80011ae <HAL_RCC_OscConfig+0x2a2>
        __HAL_RCC_HSI_CALIBRATIONVALUE_ADJUST(RCC_OscInitStruct->HSICalibrationValue);
 8001290:	4e8d      	ldr	r6, [pc, #564]	; (80014c8 <HAL_RCC_OscConfig+0x5bc>)
 8001292:	6922      	ldr	r2, [r4, #16]
 8001294:	6871      	ldr	r1, [r6, #4]
 8001296:	488d      	ldr	r0, [pc, #564]	; (80014cc <HAL_RCC_OscConfig+0x5c0>)
 8001298:	0212      	lsls	r2, r2, #8
 800129a:	4001      	ands	r1, r0
 800129c:	430a      	orrs	r2, r1
        __HAL_RCC_HSI_CONFIG(hsi_state);
 800129e:	2109      	movs	r1, #9
        __HAL_RCC_HSI_CALIBRATIONVALUE_ADJUST(RCC_OscInitStruct->HSICalibrationValue);
 80012a0:	6072      	str	r2, [r6, #4]
        __HAL_RCC_HSI_CONFIG(hsi_state);
 80012a2:	6832      	ldr	r2, [r6, #0]
 80012a4:	438a      	bics	r2, r1
 80012a6:	4313      	orrs	r3, r2
 80012a8:	6033      	str	r3, [r6, #0]
      SystemCoreClock = HAL_RCC_GetSysClockFreq() >> AHBPrescTable[(RCC->CFGR & RCC_CFGR_HPRE)>> RCC_CFGR_HPRE_Pos];
 80012aa:	f7ff fde9 	bl	8000e80 <HAL_RCC_GetSysClockFreq>
 80012ae:	68f3      	ldr	r3, [r6, #12]
 80012b0:	4a87      	ldr	r2, [pc, #540]	; (80014d0 <HAL_RCC_OscConfig+0x5c4>)
 80012b2:	061b      	lsls	r3, r3, #24
 80012b4:	0f1b      	lsrs	r3, r3, #28
 80012b6:	5cd3      	ldrb	r3, [r2, r3]
 80012b8:	40d8      	lsrs	r0, r3
 80012ba:	4b86      	ldr	r3, [pc, #536]	; (80014d4 <HAL_RCC_OscConfig+0x5c8>)
 80012bc:	6018      	str	r0, [r3, #0]
      status = HAL_InitTick (uwTickPrio);
 80012be:	4b86      	ldr	r3, [pc, #536]	; (80014d8 <HAL_RCC_OscConfig+0x5cc>)
 80012c0:	6818      	ldr	r0, [r3, #0]
 80012c2:	f7ff fb73 	bl	80009ac <HAL_InitTick>
      if(status != HAL_OK)
 80012c6:	2800      	cmp	r0, #0
 80012c8:	d000      	beq.n	80012cc <HAL_RCC_OscConfig+0x3c0>
 80012ca:	e771      	b.n	80011b0 <HAL_RCC_OscConfig+0x2a4>
 80012cc:	6823      	ldr	r3, [r4, #0]
  if(((RCC_OscInitStruct->OscillatorType) & RCC_OSCILLATORTYPE_MSI) == RCC_OSCILLATORTYPE_MSI)
 80012ce:	06da      	lsls	r2, r3, #27
 80012d0:	d400      	bmi.n	80012d4 <HAL_RCC_OscConfig+0x3c8>
 80012d2:	e6bc      	b.n	800104e <HAL_RCC_OscConfig+0x142>
 80012d4:	e68f      	b.n	8000ff6 <HAL_RCC_OscConfig+0xea>
    __HAL_RCC_LSE_CONFIG(RCC_OscInitStruct->LSEState);
 80012d6:	4e7c      	ldr	r6, [pc, #496]	; (80014c8 <HAL_RCC_OscConfig+0x5bc>)
 80012d8:	4a80      	ldr	r2, [pc, #512]	; (80014dc <HAL_RCC_OscConfig+0x5d0>)
 80012da:	6d33      	ldr	r3, [r6, #80]	; 0x50
 80012dc:	4013      	ands	r3, r2
 80012de:	6533      	str	r3, [r6, #80]	; 0x50
 80012e0:	6d33      	ldr	r3, [r6, #80]	; 0x50
 80012e2:	4a7f      	ldr	r2, [pc, #508]	; (80014e0 <HAL_RCC_OscConfig+0x5d4>)
 80012e4:	4013      	ands	r3, r2
 80012e6:	6533      	str	r3, [r6, #80]	; 0x50
      tickstart = HAL_GetTick();
 80012e8:	f7ff fba6 	bl	8000a38 <HAL_GetTick>
      while(__HAL_RCC_GET_FLAG(RCC_FLAG_LSERDY) != 0U)
 80012ec:	2380      	movs	r3, #128	; 0x80
 80012ee:	009b      	lsls	r3, r3, #2
 80012f0:	4698      	mov	r8, r3
        if((HAL_GetTick() - tickstart ) > RCC_LSE_TIMEOUT_VALUE)
 80012f2:	4b7c      	ldr	r3, [pc, #496]	; (80014e4 <HAL_RCC_OscConfig+0x5d8>)
      tickstart = HAL_GetTick();
 80012f4:	0007      	movs	r7, r0
        if((HAL_GetTick() - tickstart ) > RCC_LSE_TIMEOUT_VALUE)
 80012f6:	4699      	mov	r9, r3
      while(__HAL_RCC_GET_FLAG(RCC_FLAG_LSERDY) != 0U)
 80012f8:	e004      	b.n	8001304 <HAL_RCC_OscConfig+0x3f8>
        if((HAL_GetTick() - tickstart ) > RCC_LSE_TIMEOUT_VALUE)
 80012fa:	f7ff fb9d 	bl	8000a38 <HAL_GetTick>
 80012fe:	1bc0      	subs	r0, r0, r7
 8001300:	4548      	cmp	r0, r9
 8001302:	d814      	bhi.n	800132e <HAL_RCC_OscConfig+0x422>
      while(__HAL_RCC_GET_FLAG(RCC_FLAG_LSERDY) != 0U)
 8001304:	4642      	mov	r2, r8
 8001306:	6d33      	ldr	r3, [r6, #80]	; 0x50
 8001308:	4213      	tst	r3, r2
 800130a:	d1f6      	bne.n	80012fa <HAL_RCC_OscConfig+0x3ee>
 800130c:	e6fc      	b.n	8001108 <HAL_RCC_OscConfig+0x1fc>
      SET_BIT(PWR->CR, PWR_CR_DBP);
 800130e:	6833      	ldr	r3, [r6, #0]
 8001310:	433b      	orrs	r3, r7
 8001312:	6033      	str	r3, [r6, #0]
      tickstart = HAL_GetTick();
 8001314:	f7ff fb90 	bl	8000a38 <HAL_GetTick>
 8001318:	4680      	mov	r8, r0
      while(HAL_IS_BIT_CLR(PWR->CR, PWR_CR_DBP))
 800131a:	6833      	ldr	r3, [r6, #0]
 800131c:	423b      	tst	r3, r7
 800131e:	d000      	beq.n	8001322 <HAL_RCC_OscConfig+0x416>
 8001320:	e6c7      	b.n	80010b2 <HAL_RCC_OscConfig+0x1a6>
        if((HAL_GetTick() - tickstart) > RCC_DBP_TIMEOUT_VALUE)
 8001322:	f7ff fb89 	bl	8000a38 <HAL_GetTick>
 8001326:	4643      	mov	r3, r8
 8001328:	1ac0      	subs	r0, r0, r3
 800132a:	2864      	cmp	r0, #100	; 0x64
 800132c:	d9f5      	bls.n	800131a <HAL_RCC_OscConfig+0x40e>
            return HAL_TIMEOUT;
 800132e:	2003      	movs	r0, #3
 8001330:	e73e      	b.n	80011b0 <HAL_RCC_OscConfig+0x2a4>
      __HAL_RCC_LSI_DISABLE();
 8001332:	2201      	movs	r2, #1
 8001334:	6d33      	ldr	r3, [r6, #80]	; 0x50
 8001336:	4393      	bics	r3, r2
 8001338:	6533      	str	r3, [r6, #80]	; 0x50
      tickstart = HAL_GetTick();
 800133a:	f7ff fb7d 	bl	8000a38 <HAL_GetTick>
      while(__HAL_RCC_GET_FLAG(RCC_FLAG_LSIRDY) != 0U)
 800133e:	2302      	movs	r3, #2
      tickstart = HAL_GetTick();
 8001340:	0007      	movs	r7, r0
      while(__HAL_RCC_GET_FLAG(RCC_FLAG_LSIRDY) != 0U)
 8001342:	4698      	mov	r8, r3
 8001344:	e004      	b.n	8001350 <HAL_RCC_OscConfig+0x444>
        if((HAL_GetTick() - tickstart ) > LSI_TIMEOUT_VALUE)
 8001346:	f7ff fb77 	bl	8000a38 <HAL_GetTick>
 800134a:	1bc0      	subs	r0, r0, r7
 800134c:	2802      	cmp	r0, #2
 800134e:	d8ee      	bhi.n	800132e <HAL_RCC_OscConfig+0x422>
      while(__HAL_RCC_GET_FLAG(RCC_FLAG_LSIRDY) != 0U)
 8001350:	4642      	mov	r2, r8
 8001352:	6d33      	ldr	r3, [r6, #80]	; 0x50
 8001354:	421a      	tst	r2, r3
 8001356:	d1f6      	bne.n	8001346 <HAL_RCC_OscConfig+0x43a>
 8001358:	6823      	ldr	r3, [r4, #0]
 800135a:	e694      	b.n	8001086 <HAL_RCC_OscConfig+0x17a>
        __HAL_RCC_HSI_DISABLE();
 800135c:	2201      	movs	r2, #1
 800135e:	6833      	ldr	r3, [r6, #0]
 8001360:	4393      	bics	r3, r2
 8001362:	6033      	str	r3, [r6, #0]
        tickstart = HAL_GetTick();
 8001364:	f7ff fb68 	bl	8000a38 <HAL_GetTick>
        while(__HAL_RCC_GET_FLAG(RCC_FLAG_HSIRDY) != 0U)
 8001368:	2304      	movs	r3, #4
        tickstart = HAL_GetTick();
 800136a:	0007      	movs	r7, r0
        while(__HAL_RCC_GET_FLAG(RCC_FLAG_HSIRDY) != 0U)
 800136c:	4698      	mov	r8, r3
 800136e:	e004      	b.n	800137a <HAL_RCC_OscConfig+0x46e>
          if((HAL_GetTick() - tickstart ) > HSI_TIMEOUT_VALUE)
 8001370:	f7ff fb62 	bl	8000a38 <HAL_GetTick>
 8001374:	1bc0      	subs	r0, r0, r7
 8001376:	2802      	cmp	r0, #2
 8001378:	d8d9      	bhi.n	800132e <HAL_RCC_OscConfig+0x422>
        while(__HAL_RCC_GET_FLAG(RCC_FLAG_HSIRDY) != 0U)
 800137a:	4642      	mov	r2, r8
 800137c:	6833      	ldr	r3, [r6, #0]
 800137e:	421a      	tst	r2, r3
 8001380:	d1f6      	bne.n	8001370 <HAL_RCC_OscConfig+0x464>
 8001382:	6823      	ldr	r3, [r4, #0]
 8001384:	e7a3      	b.n	80012ce <HAL_RCC_OscConfig+0x3c2>
        __HAL_RCC_MSI_DISABLE();
 8001386:	6833      	ldr	r3, [r6, #0]
 8001388:	4a54      	ldr	r2, [pc, #336]	; (80014dc <HAL_RCC_OscConfig+0x5d0>)
 800138a:	4013      	ands	r3, r2
 800138c:	6033      	str	r3, [r6, #0]
        tickstart = HAL_GetTick();
 800138e:	f7ff fb53 	bl	8000a38 <HAL_GetTick>
        while(__HAL_RCC_GET_FLAG(RCC_FLAG_MSIRDY) != 0U)
 8001392:	2380      	movs	r3, #128	; 0x80
 8001394:	009b      	lsls	r3, r3, #2
        tickstart = HAL_GetTick();
 8001396:	0007      	movs	r7, r0
        while(__HAL_RCC_GET_FLAG(RCC_FLAG_MSIRDY) != 0U)
 8001398:	4698      	mov	r8, r3
 800139a:	e004      	b.n	80013a6 <HAL_RCC_OscConfig+0x49a>
          if((HAL_GetTick() - tickstart) > MSI_TIMEOUT_VALUE)
 800139c:	f7ff fb4c 	bl	8000a38 <HAL_GetTick>
 80013a0:	1bc0      	subs	r0, r0, r7
 80013a2:	2802      	cmp	r0, #2
 80013a4:	d8c3      	bhi.n	800132e <HAL_RCC_OscConfig+0x422>
        while(__HAL_RCC_GET_FLAG(RCC_FLAG_MSIRDY) != 0U)
 80013a6:	4642      	mov	r2, r8
 80013a8:	6833      	ldr	r3, [r6, #0]
 80013aa:	4213      	tst	r3, r2
 80013ac:	d1f6      	bne.n	800139c <HAL_RCC_OscConfig+0x490>
 80013ae:	6823      	ldr	r3, [r4, #0]
 80013b0:	e64d      	b.n	800104e <HAL_RCC_OscConfig+0x142>
        __HAL_RCC_HSI48_DISABLE();
 80013b2:	2201      	movs	r2, #1
 80013b4:	68b3      	ldr	r3, [r6, #8]
 80013b6:	494c      	ldr	r1, [pc, #304]	; (80014e8 <HAL_RCC_OscConfig+0x5dc>)
 80013b8:	4393      	bics	r3, r2
 80013ba:	4a4c      	ldr	r2, [pc, #304]	; (80014ec <HAL_RCC_OscConfig+0x5e0>)
 80013bc:	60b3      	str	r3, [r6, #8]
 80013be:	6a13      	ldr	r3, [r2, #32]
 80013c0:	400b      	ands	r3, r1
 80013c2:	6213      	str	r3, [r2, #32]
        tickstart = HAL_GetTick();
 80013c4:	f7ff fb38 	bl	8000a38 <HAL_GetTick>
        while(__HAL_RCC_GET_FLAG(RCC_FLAG_HSI48RDY) != 0U)
 80013c8:	2302      	movs	r3, #2
        tickstart = HAL_GetTick();
 80013ca:	0007      	movs	r7, r0
        while(__HAL_RCC_GET_FLAG(RCC_FLAG_HSI48RDY) != 0U)
 80013cc:	4698      	mov	r8, r3
 80013ce:	e004      	b.n	80013da <HAL_RCC_OscConfig+0x4ce>
          if((HAL_GetTick() - tickstart) > HSI48_TIMEOUT_VALUE)
 80013d0:	f7ff fb32 	bl	8000a38 <HAL_GetTick>
 80013d4:	1bc0      	subs	r0, r0, r7
 80013d6:	2802      	cmp	r0, #2
 80013d8:	d8a9      	bhi.n	800132e <HAL_RCC_OscConfig+0x422>
        while(__HAL_RCC_GET_FLAG(RCC_FLAG_HSI48RDY) != 0U)
 80013da:	4642      	mov	r2, r8
 80013dc:	68b3      	ldr	r3, [r6, #8]
 80013de:	421a      	tst	r2, r3
 80013e0:	d1f6      	bne.n	80013d0 <HAL_RCC_OscConfig+0x4c4>
 80013e2:	e6b9      	b.n	8001158 <HAL_RCC_OscConfig+0x24c>
      __HAL_RCC_HSE_CONFIG(RCC_OscInitStruct->HSEState);
 80013e4:	2380      	movs	r3, #128	; 0x80
 80013e6:	4a38      	ldr	r2, [pc, #224]	; (80014c8 <HAL_RCC_OscConfig+0x5bc>)
 80013e8:	02db      	lsls	r3, r3, #11
 80013ea:	6811      	ldr	r1, [r2, #0]
 80013ec:	430b      	orrs	r3, r1
 80013ee:	6013      	str	r3, [r2, #0]
 80013f0:	6813      	ldr	r3, [r2, #0]
 80013f2:	4303      	orrs	r3, r0
 80013f4:	6013      	str	r3, [r2, #0]
      if(RCC_OscInitStruct->HSEState != RCC_HSE_OFF)
 80013f6:	e710      	b.n	800121a <HAL_RCC_OscConfig+0x30e>
      __HAL_RCC_PWR_CLK_DISABLE();
 80013f8:	4a33      	ldr	r2, [pc, #204]	; (80014c8 <HAL_RCC_OscConfig+0x5bc>)
 80013fa:	493d      	ldr	r1, [pc, #244]	; (80014f0 <HAL_RCC_OscConfig+0x5e4>)
 80013fc:	6b93      	ldr	r3, [r2, #56]	; 0x38
 80013fe:	400b      	ands	r3, r1
 8001400:	6393      	str	r3, [r2, #56]	; 0x38
 8001402:	6823      	ldr	r3, [r4, #0]
 8001404:	e685      	b.n	8001112 <HAL_RCC_OscConfig+0x206>
        __HAL_RCC_PLL_DISABLE();
 8001406:	4d30      	ldr	r5, [pc, #192]	; (80014c8 <HAL_RCC_OscConfig+0x5bc>)
 8001408:	4a3a      	ldr	r2, [pc, #232]	; (80014f4 <HAL_RCC_OscConfig+0x5e8>)
 800140a:	682b      	ldr	r3, [r5, #0]
        while(__HAL_RCC_GET_FLAG(RCC_FLAG_PLLRDY)  != 0U)
 800140c:	2780      	movs	r7, #128	; 0x80
        __HAL_RCC_PLL_DISABLE();
 800140e:	4013      	ands	r3, r2
 8001410:	602b      	str	r3, [r5, #0]
        tickstart = HAL_GetTick();
 8001412:	f7ff fb11 	bl	8000a38 <HAL_GetTick>
        while(__HAL_RCC_GET_FLAG(RCC_FLAG_PLLRDY)  != 0U)
 8001416:	04bf      	lsls	r7, r7, #18
        tickstart = HAL_GetTick();
 8001418:	0006      	movs	r6, r0
        while(__HAL_RCC_GET_FLAG(RCC_FLAG_PLLRDY)  != 0U)
 800141a:	e004      	b.n	8001426 <HAL_RCC_OscConfig+0x51a>
          if((HAL_GetTick() - tickstart ) > PLL_TIMEOUT_VALUE)
 800141c:	f7ff fb0c 	bl	8000a38 <HAL_GetTick>
 8001420:	1b80      	subs	r0, r0, r6
 8001422:	2802      	cmp	r0, #2
 8001424:	d883      	bhi.n	800132e <HAL_RCC_OscConfig+0x422>
        while(__HAL_RCC_GET_FLAG(RCC_FLAG_PLLRDY)  != 0U)
 8001426:	682b      	ldr	r3, [r5, #0]
 8001428:	423b      	tst	r3, r7
 800142a:	d1f7      	bne.n	800141c <HAL_RCC_OscConfig+0x510>
        __HAL_RCC_PLL_CONFIG(RCC_OscInitStruct->PLL.PLLSource,
 800142c:	6b21      	ldr	r1, [r4, #48]	; 0x30
 800142e:	6ae3      	ldr	r3, [r4, #44]	; 0x2c
 8001430:	68ea      	ldr	r2, [r5, #12]
 8001432:	430b      	orrs	r3, r1
 8001434:	4930      	ldr	r1, [pc, #192]	; (80014f8 <HAL_RCC_OscConfig+0x5ec>)
        while(__HAL_RCC_GET_FLAG(RCC_FLAG_PLLRDY)  == 0U)
 8001436:	4e24      	ldr	r6, [pc, #144]	; (80014c8 <HAL_RCC_OscConfig+0x5bc>)
        __HAL_RCC_PLL_CONFIG(RCC_OscInitStruct->PLL.PLLSource,
 8001438:	400a      	ands	r2, r1
 800143a:	4313      	orrs	r3, r2
 800143c:	6b62      	ldr	r2, [r4, #52]	; 0x34
 800143e:	4313      	orrs	r3, r2
 8001440:	60eb      	str	r3, [r5, #12]
        __HAL_RCC_PLL_ENABLE();
 8001442:	2380      	movs	r3, #128	; 0x80
 8001444:	682a      	ldr	r2, [r5, #0]
 8001446:	045b      	lsls	r3, r3, #17
 8001448:	4313      	orrs	r3, r2
 800144a:	602b      	str	r3, [r5, #0]
        tickstart = HAL_GetTick();
 800144c:	f7ff faf4 	bl	8000a38 <HAL_GetTick>
        while(__HAL_RCC_GET_FLAG(RCC_FLAG_PLLRDY)  == 0U)
 8001450:	2580      	movs	r5, #128	; 0x80
        tickstart = HAL_GetTick();
 8001452:	0004      	movs	r4, r0
        while(__HAL_RCC_GET_FLAG(RCC_FLAG_PLLRDY)  == 0U)
 8001454:	04ad      	lsls	r5, r5, #18
 8001456:	e005      	b.n	8001464 <HAL_RCC_OscConfig+0x558>
          if((HAL_GetTick() - tickstart ) > PLL_TIMEOUT_VALUE)
 8001458:	f7ff faee 	bl	8000a38 <HAL_GetTick>
 800145c:	1b00      	subs	r0, r0, r4
 800145e:	2802      	cmp	r0, #2
 8001460:	d900      	bls.n	8001464 <HAL_RCC_OscConfig+0x558>
 8001462:	e764      	b.n	800132e <HAL_RCC_OscConfig+0x422>
        while(__HAL_RCC_GET_FLAG(RCC_FLAG_PLLRDY)  == 0U)
 8001464:	6833      	ldr	r3, [r6, #0]
 8001466:	422b      	tst	r3, r5
 8001468:	d0f6      	beq.n	8001458 <HAL_RCC_OscConfig+0x54c>
  return HAL_OK;
 800146a:	2000      	movs	r0, #0
 800146c:	e6a0      	b.n	80011b0 <HAL_RCC_OscConfig+0x2a4>
    __HAL_RCC_LSE_CONFIG(RCC_OscInitStruct->LSEState);
 800146e:	4a16      	ldr	r2, [pc, #88]	; (80014c8 <HAL_RCC_OscConfig+0x5bc>)
 8001470:	6d11      	ldr	r1, [r2, #80]	; 0x50
 8001472:	430b      	orrs	r3, r1
 8001474:	6513      	str	r3, [r2, #80]	; 0x50
    if(RCC_OscInitStruct->LSEState != RCC_LSE_OFF)
 8001476:	e633      	b.n	80010e0 <HAL_RCC_OscConfig+0x1d4>
      if((RCC_OscInitStruct->PLL.PLLState) == RCC_PLL_OFF)
 8001478:	2b01      	cmp	r3, #1
 800147a:	d100      	bne.n	800147e <HAL_RCC_OscConfig+0x572>
 800147c:	e697      	b.n	80011ae <HAL_RCC_OscConfig+0x2a2>
        if((READ_BIT(pll_config, RCC_CFGR_PLLSRC) != RCC_OscInitStruct->PLL.PLLSource) ||
 800147e:	2280      	movs	r2, #128	; 0x80
        pll_config = RCC->CFGR;
 8001480:	4b11      	ldr	r3, [pc, #68]	; (80014c8 <HAL_RCC_OscConfig+0x5bc>)
        if((READ_BIT(pll_config, RCC_CFGR_PLLSRC) != RCC_OscInitStruct->PLL.PLLSource) ||
 8001482:	6ae1      	ldr	r1, [r4, #44]	; 0x2c
        pll_config = RCC->CFGR;
 8001484:	68db      	ldr	r3, [r3, #12]
        if((READ_BIT(pll_config, RCC_CFGR_PLLSRC) != RCC_OscInitStruct->PLL.PLLSource) ||
 8001486:	0252      	lsls	r2, r2, #9
        return HAL_ERROR;
 8001488:	2001      	movs	r0, #1
        if((READ_BIT(pll_config, RCC_CFGR_PLLSRC) != RCC_OscInitStruct->PLL.PLLSource) ||
 800148a:	401a      	ands	r2, r3
 800148c:	428a      	cmp	r2, r1
 800148e:	d000      	beq.n	8001492 <HAL_RCC_OscConfig+0x586>
 8001490:	e68e      	b.n	80011b0 <HAL_RCC_OscConfig+0x2a4>
           (READ_BIT(pll_config, RCC_CFGR_PLLMUL) != RCC_OscInitStruct->PLL.PLLMUL) ||
 8001492:	22f0      	movs	r2, #240	; 0xf0
        if((READ_BIT(pll_config, RCC_CFGR_PLLSRC) != RCC_OscInitStruct->PLL.PLLSource) ||
 8001494:	6b21      	ldr	r1, [r4, #48]	; 0x30
           (READ_BIT(pll_config, RCC_CFGR_PLLMUL) != RCC_OscInitStruct->PLL.PLLMUL) ||
 8001496:	0392      	lsls	r2, r2, #14
 8001498:	401a      	ands	r2, r3
        if((READ_BIT(pll_config, RCC_CFGR_PLLSRC) != RCC_OscInitStruct->PLL.PLLSource) ||
 800149a:	428a      	cmp	r2, r1
 800149c:	d000      	beq.n	80014a0 <HAL_RCC_OscConfig+0x594>
 800149e:	e687      	b.n	80011b0 <HAL_RCC_OscConfig+0x2a4>
           (READ_BIT(pll_config, RCC_CFGR_PLLDIV) != RCC_OscInitStruct->PLL.PLLDIV))
 80014a0:	20c0      	movs	r0, #192	; 0xc0
 80014a2:	0400      	lsls	r0, r0, #16
 80014a4:	4003      	ands	r3, r0
           (READ_BIT(pll_config, RCC_CFGR_PLLMUL) != RCC_OscInitStruct->PLL.PLLMUL) ||
 80014a6:	6b60      	ldr	r0, [r4, #52]	; 0x34
 80014a8:	1a18      	subs	r0, r3, r0
 80014aa:	1e43      	subs	r3, r0, #1
 80014ac:	4198      	sbcs	r0, r3
        return HAL_ERROR;
 80014ae:	b2c0      	uxtb	r0, r0
 80014b0:	e67e      	b.n	80011b0 <HAL_RCC_OscConfig+0x2a4>
    __HAL_RCC_LSE_CONFIG(RCC_OscInitStruct->LSEState);
 80014b2:	4b05      	ldr	r3, [pc, #20]	; (80014c8 <HAL_RCC_OscConfig+0x5bc>)
 80014b4:	3901      	subs	r1, #1
 80014b6:	6d18      	ldr	r0, [r3, #80]	; 0x50
 80014b8:	39ff      	subs	r1, #255	; 0xff
 80014ba:	4301      	orrs	r1, r0
 80014bc:	6519      	str	r1, [r3, #80]	; 0x50
 80014be:	6d19      	ldr	r1, [r3, #80]	; 0x50
 80014c0:	430a      	orrs	r2, r1
 80014c2:	651a      	str	r2, [r3, #80]	; 0x50
 80014c4:	e60c      	b.n	80010e0 <HAL_RCC_OscConfig+0x1d4>
 80014c6:	46c0      	nop			; (mov r8, r8)
 80014c8:	40021000 	.word	0x40021000
 80014cc:	ffffe0ff 	.word	0xffffe0ff
 80014d0:	0800323c 	.word	0x0800323c
 80014d4:	20000000 	.word	0x20000000
 80014d8:	20000008 	.word	0x20000008
 80014dc:	fffffeff 	.word	0xfffffeff
 80014e0:	fffffbff 	.word	0xfffffbff
 80014e4:	00001388 	.word	0x00001388
 80014e8:	ffffdfff 	.word	0xffffdfff
 80014ec:	40010000 	.word	0x40010000
 80014f0:	efffffff 	.word	0xefffffff
 80014f4:	feffffff 	.word	0xfeffffff
 80014f8:	ff02ffff 	.word	0xff02ffff

080014fc <HAL_RCC_ClockConfig>:
{
 80014fc:	b5f8      	push	{r3, r4, r5, r6, r7, lr}
 80014fe:	46ce      	mov	lr, r9
 8001500:	4647      	mov	r7, r8
 8001502:	0005      	movs	r5, r0
 8001504:	000c      	movs	r4, r1
 8001506:	b580      	push	{r7, lr}
  if(RCC_ClkInitStruct == NULL)
 8001508:	2800      	cmp	r0, #0
 800150a:	d066      	beq.n	80015da <HAL_RCC_ClockConfig+0xde>
  if(FLatency > __HAL_FLASH_GET_LATENCY())
 800150c:	2201      	movs	r2, #1
 800150e:	4e6b      	ldr	r6, [pc, #428]	; (80016bc <HAL_RCC_ClockConfig+0x1c0>)
 8001510:	6833      	ldr	r3, [r6, #0]
 8001512:	4013      	ands	r3, r2
 8001514:	428b      	cmp	r3, r1
 8001516:	d362      	bcc.n	80015de <HAL_RCC_ClockConfig+0xe2>
  if(((RCC_ClkInitStruct->ClockType) & RCC_CLOCKTYPE_HCLK) == RCC_CLOCKTYPE_HCLK)
 8001518:	682b      	ldr	r3, [r5, #0]
 800151a:	079a      	lsls	r2, r3, #30
 800151c:	d506      	bpl.n	800152c <HAL_RCC_ClockConfig+0x30>
    MODIFY_REG(RCC->CFGR, RCC_CFGR_HPRE, RCC_ClkInitStruct->AHBCLKDivider);
 800151e:	20f0      	movs	r0, #240	; 0xf0
 8001520:	4967      	ldr	r1, [pc, #412]	; (80016c0 <HAL_RCC_ClockConfig+0x1c4>)
 8001522:	68ca      	ldr	r2, [r1, #12]
 8001524:	4382      	bics	r2, r0
 8001526:	68a8      	ldr	r0, [r5, #8]
 8001528:	4302      	orrs	r2, r0
 800152a:	60ca      	str	r2, [r1, #12]
  if(((RCC_ClkInitStruct->ClockType) & RCC_CLOCKTYPE_SYSCLK) == RCC_CLOCKTYPE_SYSCLK)
 800152c:	07db      	lsls	r3, r3, #31
 800152e:	d52d      	bpl.n	800158c <HAL_RCC_ClockConfig+0x90>
      if(__HAL_RCC_GET_FLAG(RCC_FLAG_HSERDY) == 0U)
 8001530:	4b63      	ldr	r3, [pc, #396]	; (80016c0 <HAL_RCC_ClockConfig+0x1c4>)
    if(RCC_ClkInitStruct->SYSCLKSource == RCC_SYSCLKSOURCE_HSE)
 8001532:	686a      	ldr	r2, [r5, #4]
      if(__HAL_RCC_GET_FLAG(RCC_FLAG_HSERDY) == 0U)
 8001534:	681b      	ldr	r3, [r3, #0]
    if(RCC_ClkInitStruct->SYSCLKSource == RCC_SYSCLKSOURCE_HSE)
 8001536:	2a02      	cmp	r2, #2
 8001538:	d04d      	beq.n	80015d6 <HAL_RCC_ClockConfig+0xda>
    else if(RCC_ClkInitStruct->SYSCLKSource == RCC_SYSCLKSOURCE_PLLCLK)
 800153a:	2a03      	cmp	r2, #3
 800153c:	d100      	bne.n	8001540 <HAL_RCC_ClockConfig+0x44>
 800153e:	e06f      	b.n	8001620 <HAL_RCC_ClockConfig+0x124>
    else if(RCC_ClkInitStruct->SYSCLKSource == RCC_SYSCLKSOURCE_HSI)
 8001540:	2a01      	cmp	r2, #1
 8001542:	d100      	bne.n	8001546 <HAL_RCC_ClockConfig+0x4a>
 8001544:	e0a4      	b.n	8001690 <HAL_RCC_ClockConfig+0x194>
      if(__HAL_RCC_GET_FLAG(RCC_FLAG_MSIRDY) == 0U)
 8001546:	059b      	lsls	r3, r3, #22
 8001548:	d547      	bpl.n	80015da <HAL_RCC_ClockConfig+0xde>
    __HAL_RCC_SYSCLK_CONFIG(RCC_ClkInitStruct->SYSCLKSource);
 800154a:	2103      	movs	r1, #3
 800154c:	4e5c      	ldr	r6, [pc, #368]	; (80016c0 <HAL_RCC_ClockConfig+0x1c4>)
 800154e:	68f3      	ldr	r3, [r6, #12]
 8001550:	438b      	bics	r3, r1
 8001552:	4313      	orrs	r3, r2
 8001554:	60f3      	str	r3, [r6, #12]
    tickstart = HAL_GetTick();
 8001556:	f7ff fa6f 	bl	8000a38 <HAL_GetTick>
    if(RCC_ClkInitStruct->SYSCLKSource == RCC_SYSCLKSOURCE_HSE)
 800155a:	686b      	ldr	r3, [r5, #4]
    tickstart = HAL_GetTick();
 800155c:	0007      	movs	r7, r0
    if(RCC_ClkInitStruct->SYSCLKSource == RCC_SYSCLKSOURCE_HSE)
 800155e:	2b02      	cmp	r3, #2
 8001560:	d100      	bne.n	8001564 <HAL_RCC_ClockConfig+0x68>
 8001562:	e075      	b.n	8001650 <HAL_RCC_ClockConfig+0x154>
    else if(RCC_ClkInitStruct->SYSCLKSource == RCC_SYSCLKSOURCE_PLLCLK)
 8001564:	2b03      	cmp	r3, #3
 8001566:	d100      	bne.n	800156a <HAL_RCC_ClockConfig+0x6e>
 8001568:	e082      	b.n	8001670 <HAL_RCC_ClockConfig+0x174>
    else if(RCC_ClkInitStruct->SYSCLKSource == RCC_SYSCLKSOURCE_HSI)
 800156a:	2b01      	cmp	r3, #1
 800156c:	d100      	bne.n	8001570 <HAL_RCC_ClockConfig+0x74>
 800156e:	e094      	b.n	800169a <HAL_RCC_ClockConfig+0x19e>
      while(__HAL_RCC_GET_SYSCLK_SOURCE() != RCC_SYSCLKSOURCE_STATUS_MSI)
 8001570:	230c      	movs	r3, #12
 8001572:	4698      	mov	r8, r3
        if((HAL_GetTick() - tickstart ) > CLOCKSWITCH_TIMEOUT_VALUE)
 8001574:	4b53      	ldr	r3, [pc, #332]	; (80016c4 <HAL_RCC_ClockConfig+0x1c8>)
 8001576:	4699      	mov	r9, r3
 8001578:	e004      	b.n	8001584 <HAL_RCC_ClockConfig+0x88>
 800157a:	f7ff fa5d 	bl	8000a38 <HAL_GetTick>
 800157e:	1bc0      	subs	r0, r0, r7
 8001580:	4548      	cmp	r0, r9
 8001582:	d842      	bhi.n	800160a <HAL_RCC_ClockConfig+0x10e>
      while(__HAL_RCC_GET_SYSCLK_SOURCE() != RCC_SYSCLKSOURCE_STATUS_MSI)
 8001584:	4642      	mov	r2, r8
 8001586:	68f3      	ldr	r3, [r6, #12]
 8001588:	421a      	tst	r2, r3
 800158a:	d1f6      	bne.n	800157a <HAL_RCC_ClockConfig+0x7e>
  if(FLatency < __HAL_FLASH_GET_LATENCY())
 800158c:	2201      	movs	r2, #1
 800158e:	4e4b      	ldr	r6, [pc, #300]	; (80016bc <HAL_RCC_ClockConfig+0x1c0>)
 8001590:	6833      	ldr	r3, [r6, #0]
 8001592:	4013      	ands	r3, r2
 8001594:	42a3      	cmp	r3, r4
 8001596:	d847      	bhi.n	8001628 <HAL_RCC_ClockConfig+0x12c>
  if(((RCC_ClkInitStruct->ClockType) & RCC_CLOCKTYPE_PCLK1) == RCC_CLOCKTYPE_PCLK1)
 8001598:	682b      	ldr	r3, [r5, #0]
 800159a:	075a      	lsls	r2, r3, #29
 800159c:	d506      	bpl.n	80015ac <HAL_RCC_ClockConfig+0xb0>
    MODIFY_REG(RCC->CFGR, RCC_CFGR_PPRE1, RCC_ClkInitStruct->APB1CLKDivider);
 800159e:	4948      	ldr	r1, [pc, #288]	; (80016c0 <HAL_RCC_ClockConfig+0x1c4>)
 80015a0:	4849      	ldr	r0, [pc, #292]	; (80016c8 <HAL_RCC_ClockConfig+0x1cc>)
 80015a2:	68ca      	ldr	r2, [r1, #12]
 80015a4:	4002      	ands	r2, r0
 80015a6:	68e8      	ldr	r0, [r5, #12]
 80015a8:	4302      	orrs	r2, r0
 80015aa:	60ca      	str	r2, [r1, #12]
  if(((RCC_ClkInitStruct->ClockType) & RCC_CLOCKTYPE_PCLK2) == RCC_CLOCKTYPE_PCLK2)
 80015ac:	071b      	lsls	r3, r3, #28
 80015ae:	d42e      	bmi.n	800160e <HAL_RCC_ClockConfig+0x112>
  SystemCoreClock = HAL_RCC_GetSysClockFreq() >> AHBPrescTable[(RCC->CFGR & RCC_CFGR_HPRE)>> RCC_CFGR_HPRE_Pos];
 80015b0:	f7ff fc66 	bl	8000e80 <HAL_RCC_GetSysClockFreq>
 80015b4:	4b42      	ldr	r3, [pc, #264]	; (80016c0 <HAL_RCC_ClockConfig+0x1c4>)
 80015b6:	4a45      	ldr	r2, [pc, #276]	; (80016cc <HAL_RCC_ClockConfig+0x1d0>)
 80015b8:	68db      	ldr	r3, [r3, #12]
 80015ba:	061b      	lsls	r3, r3, #24
 80015bc:	0f1b      	lsrs	r3, r3, #28
 80015be:	5cd3      	ldrb	r3, [r2, r3]
 80015c0:	40d8      	lsrs	r0, r3
 80015c2:	4b43      	ldr	r3, [pc, #268]	; (80016d0 <HAL_RCC_ClockConfig+0x1d4>)
 80015c4:	6018      	str	r0, [r3, #0]
  status = HAL_InitTick(uwTickPrio);
 80015c6:	4b43      	ldr	r3, [pc, #268]	; (80016d4 <HAL_RCC_ClockConfig+0x1d8>)
 80015c8:	6818      	ldr	r0, [r3, #0]
 80015ca:	f7ff f9ef 	bl	80009ac <HAL_InitTick>
}
 80015ce:	bcc0      	pop	{r6, r7}
 80015d0:	46b9      	mov	r9, r7
 80015d2:	46b0      	mov	r8, r6
 80015d4:	bdf8      	pop	{r3, r4, r5, r6, r7, pc}
      if(__HAL_RCC_GET_FLAG(RCC_FLAG_HSERDY) == 0U)
 80015d6:	039b      	lsls	r3, r3, #14
 80015d8:	d4b7      	bmi.n	800154a <HAL_RCC_ClockConfig+0x4e>
    return HAL_ERROR;
 80015da:	2001      	movs	r0, #1
 80015dc:	e7f7      	b.n	80015ce <HAL_RCC_ClockConfig+0xd2>
    __HAL_FLASH_SET_LATENCY(FLatency);
 80015de:	6833      	ldr	r3, [r6, #0]
 80015e0:	4393      	bics	r3, r2
 80015e2:	430b      	orrs	r3, r1
 80015e4:	6033      	str	r3, [r6, #0]
    tickstart = HAL_GetTick();
 80015e6:	f7ff fa27 	bl	8000a38 <HAL_GetTick>
    while (__HAL_FLASH_GET_LATENCY() != FLatency)
 80015ea:	2301      	movs	r3, #1
 80015ec:	4698      	mov	r8, r3
      if ((HAL_GetTick() - tickstart) > CLOCKSWITCH_TIMEOUT_VALUE)
 80015ee:	4b35      	ldr	r3, [pc, #212]	; (80016c4 <HAL_RCC_ClockConfig+0x1c8>)
    tickstart = HAL_GetTick();
 80015f0:	0007      	movs	r7, r0
      if ((HAL_GetTick() - tickstart) > CLOCKSWITCH_TIMEOUT_VALUE)
 80015f2:	4699      	mov	r9, r3
    while (__HAL_FLASH_GET_LATENCY() != FLatency)
 80015f4:	4642      	mov	r2, r8
 80015f6:	6833      	ldr	r3, [r6, #0]
 80015f8:	4013      	ands	r3, r2
 80015fa:	42a3      	cmp	r3, r4
 80015fc:	d100      	bne.n	8001600 <HAL_RCC_ClockConfig+0x104>
 80015fe:	e78b      	b.n	8001518 <HAL_RCC_ClockConfig+0x1c>
      if ((HAL_GetTick() - tickstart) > CLOCKSWITCH_TIMEOUT_VALUE)
 8001600:	f7ff fa1a 	bl	8000a38 <HAL_GetTick>
 8001604:	1bc0      	subs	r0, r0, r7
 8001606:	4548      	cmp	r0, r9
 8001608:	d9f4      	bls.n	80015f4 <HAL_RCC_ClockConfig+0xf8>
        return HAL_TIMEOUT;
 800160a:	2003      	movs	r0, #3
 800160c:	e7df      	b.n	80015ce <HAL_RCC_ClockConfig+0xd2>
    MODIFY_REG(RCC->CFGR, RCC_CFGR_PPRE2, ((RCC_ClkInitStruct->APB2CLKDivider) << 3));
 800160e:	492c      	ldr	r1, [pc, #176]	; (80016c0 <HAL_RCC_ClockConfig+0x1c4>)
 8001610:	692b      	ldr	r3, [r5, #16]
 8001612:	68ca      	ldr	r2, [r1, #12]
 8001614:	4830      	ldr	r0, [pc, #192]	; (80016d8 <HAL_RCC_ClockConfig+0x1dc>)
 8001616:	00db      	lsls	r3, r3, #3
 8001618:	4002      	ands	r2, r0
 800161a:	4313      	orrs	r3, r2
 800161c:	60cb      	str	r3, [r1, #12]
 800161e:	e7c7      	b.n	80015b0 <HAL_RCC_ClockConfig+0xb4>
      if(__HAL_RCC_GET_FLAG(RCC_FLAG_PLLRDY) == 0U)
 8001620:	019b      	lsls	r3, r3, #6
 8001622:	d492      	bmi.n	800154a <HAL_RCC_ClockConfig+0x4e>
    return HAL_ERROR;
 8001624:	2001      	movs	r0, #1
 8001626:	e7d2      	b.n	80015ce <HAL_RCC_ClockConfig+0xd2>
    __HAL_FLASH_SET_LATENCY(FLatency);
 8001628:	6833      	ldr	r3, [r6, #0]
    while (__HAL_FLASH_GET_LATENCY() != FLatency)
 800162a:	0034      	movs	r4, r6
    __HAL_FLASH_SET_LATENCY(FLatency);
 800162c:	4393      	bics	r3, r2
 800162e:	6033      	str	r3, [r6, #0]
    tickstart = HAL_GetTick();
 8001630:	f7ff fa02 	bl	8000a38 <HAL_GetTick>
      if ((HAL_GetTick() - tickstart) > CLOCKSWITCH_TIMEOUT_VALUE)
 8001634:	4b23      	ldr	r3, [pc, #140]	; (80016c4 <HAL_RCC_ClockConfig+0x1c8>)
    tickstart = HAL_GetTick();
 8001636:	0007      	movs	r7, r0
    while (__HAL_FLASH_GET_LATENCY() != FLatency)
 8001638:	2601      	movs	r6, #1
      if ((HAL_GetTick() - tickstart) > CLOCKSWITCH_TIMEOUT_VALUE)
 800163a:	4698      	mov	r8, r3
    while (__HAL_FLASH_GET_LATENCY() != FLatency)
 800163c:	6823      	ldr	r3, [r4, #0]
 800163e:	421e      	tst	r6, r3
 8001640:	d0aa      	beq.n	8001598 <HAL_RCC_ClockConfig+0x9c>
      if ((HAL_GetTick() - tickstart) > CLOCKSWITCH_TIMEOUT_VALUE)
 8001642:	f7ff f9f9 	bl	8000a38 <HAL_GetTick>
 8001646:	1bc0      	subs	r0, r0, r7
 8001648:	4540      	cmp	r0, r8
 800164a:	d9f7      	bls.n	800163c <HAL_RCC_ClockConfig+0x140>
        return HAL_TIMEOUT;
 800164c:	2003      	movs	r0, #3
 800164e:	e7be      	b.n	80015ce <HAL_RCC_ClockConfig+0xd2>
      while (__HAL_RCC_GET_SYSCLK_SOURCE() != RCC_SYSCLKSOURCE_STATUS_HSE)
 8001650:	330a      	adds	r3, #10
 8001652:	4698      	mov	r8, r3
        if((HAL_GetTick() - tickstart ) > CLOCKSWITCH_TIMEOUT_VALUE)
 8001654:	4b1b      	ldr	r3, [pc, #108]	; (80016c4 <HAL_RCC_ClockConfig+0x1c8>)
 8001656:	4699      	mov	r9, r3
 8001658:	e004      	b.n	8001664 <HAL_RCC_ClockConfig+0x168>
 800165a:	f7ff f9ed 	bl	8000a38 <HAL_GetTick>
 800165e:	1bc0      	subs	r0, r0, r7
 8001660:	4548      	cmp	r0, r9
 8001662:	d8d2      	bhi.n	800160a <HAL_RCC_ClockConfig+0x10e>
      while (__HAL_RCC_GET_SYSCLK_SOURCE() != RCC_SYSCLKSOURCE_STATUS_HSE)
 8001664:	4642      	mov	r2, r8
 8001666:	68f3      	ldr	r3, [r6, #12]
 8001668:	4013      	ands	r3, r2
 800166a:	2b08      	cmp	r3, #8
 800166c:	d1f5      	bne.n	800165a <HAL_RCC_ClockConfig+0x15e>
 800166e:	e78d      	b.n	800158c <HAL_RCC_ClockConfig+0x90>
      while (__HAL_RCC_GET_SYSCLK_SOURCE() != RCC_SYSCLKSOURCE_STATUS_PLLCLK)
 8001670:	3309      	adds	r3, #9
 8001672:	4698      	mov	r8, r3
        if((HAL_GetTick() - tickstart ) > CLOCKSWITCH_TIMEOUT_VALUE)
 8001674:	4b13      	ldr	r3, [pc, #76]	; (80016c4 <HAL_RCC_ClockConfig+0x1c8>)
 8001676:	4699      	mov	r9, r3
 8001678:	e004      	b.n	8001684 <HAL_RCC_ClockConfig+0x188>
 800167a:	f7ff f9dd 	bl	8000a38 <HAL_GetTick>
 800167e:	1bc0      	subs	r0, r0, r7
 8001680:	4548      	cmp	r0, r9
 8001682:	d8c2      	bhi.n	800160a <HAL_RCC_ClockConfig+0x10e>
      while (__HAL_RCC_GET_SYSCLK_SOURCE() != RCC_SYSCLKSOURCE_STATUS_PLLCLK)
 8001684:	4642      	mov	r2, r8
 8001686:	68f3      	ldr	r3, [r6, #12]
 8001688:	4013      	ands	r3, r2
 800168a:	2b0c      	cmp	r3, #12
 800168c:	d1f5      	bne.n	800167a <HAL_RCC_ClockConfig+0x17e>
 800168e:	e77d      	b.n	800158c <HAL_RCC_ClockConfig+0x90>
      if(__HAL_RCC_GET_FLAG(RCC_FLAG_HSIRDY) == 0U)
 8001690:	075b      	lsls	r3, r3, #29
 8001692:	d500      	bpl.n	8001696 <HAL_RCC_ClockConfig+0x19a>
 8001694:	e759      	b.n	800154a <HAL_RCC_ClockConfig+0x4e>
    return HAL_ERROR;
 8001696:	2001      	movs	r0, #1
 8001698:	e799      	b.n	80015ce <HAL_RCC_ClockConfig+0xd2>
      while (__HAL_RCC_GET_SYSCLK_SOURCE() != RCC_SYSCLKSOURCE_STATUS_HSI)
 800169a:	330b      	adds	r3, #11
 800169c:	4698      	mov	r8, r3
        if((HAL_GetTick() - tickstart ) > CLOCKSWITCH_TIMEOUT_VALUE)
 800169e:	4b09      	ldr	r3, [pc, #36]	; (80016c4 <HAL_RCC_ClockConfig+0x1c8>)
 80016a0:	4699      	mov	r9, r3
 80016a2:	e004      	b.n	80016ae <HAL_RCC_ClockConfig+0x1b2>
 80016a4:	f7ff f9c8 	bl	8000a38 <HAL_GetTick>
 80016a8:	1bc0      	subs	r0, r0, r7
 80016aa:	4548      	cmp	r0, r9
 80016ac:	d8ad      	bhi.n	800160a <HAL_RCC_ClockConfig+0x10e>
      while (__HAL_RCC_GET_SYSCLK_SOURCE() != RCC_SYSCLKSOURCE_STATUS_HSI)
 80016ae:	4642      	mov	r2, r8
 80016b0:	68f3      	ldr	r3, [r6, #12]
 80016b2:	4013      	ands	r3, r2
 80016b4:	2b04      	cmp	r3, #4
 80016b6:	d1f5      	bne.n	80016a4 <HAL_RCC_ClockConfig+0x1a8>
 80016b8:	e768      	b.n	800158c <HAL_RCC_ClockConfig+0x90>
 80016ba:	46c0      	nop			; (mov r8, r8)
 80016bc:	40022000 	.word	0x40022000
 80016c0:	40021000 	.word	0x40021000
 80016c4:	00001388 	.word	0x00001388
 80016c8:	fffff8ff 	.word	0xfffff8ff
 80016cc:	0800323c 	.word	0x0800323c
 80016d0:	20000000 	.word	0x20000000
 80016d4:	20000008 	.word	0x20000008
 80016d8:	ffffc7ff 	.word	0xffffc7ff

080016dc <SPI_WaitFlagStateUntilTimeout.constprop.0>:
  * @param  State flag state to check
  * @param  Timeout Timeout duration
  * @param  Tickstart tick start value
  * @retval HAL status
  */
static HAL_StatusTypeDef SPI_WaitFlagStateUntilTimeout(SPI_HandleTypeDef *hspi, uint32_t Flag, FlagStatus State,
 80016dc:	b5f0      	push	{r4, r5, r6, r7, lr}
 80016de:	46c6      	mov	lr, r8
 80016e0:	b500      	push	{lr}
 80016e2:	001d      	movs	r5, r3
 80016e4:	0016      	movs	r6, r2
 80016e6:	b082      	sub	sp, #8
 80016e8:	000c      	movs	r4, r1
 80016ea:	0007      	movs	r7, r0
  __IO uint32_t count;
  uint32_t tmp_timeout;
  uint32_t tmp_tickstart;

  /* Adjust Timeout value  in case of end of transfer */
  tmp_timeout   = Timeout - (HAL_GetTick() - Tickstart);
 80016ec:	f7ff f9a4 	bl	8000a38 <HAL_GetTick>
 80016f0:	19ad      	adds	r5, r5, r6
 80016f2:	1a2d      	subs	r5, r5, r0
  tmp_tickstart = HAL_GetTick();
 80016f4:	f7ff f9a0 	bl	8000a38 <HAL_GetTick>
 80016f8:	4680      	mov	r8, r0

  /* Calculate Timeout based on a software loop to avoid blocking issue if Systick is disabled */
  count = tmp_timeout * ((SystemCoreClock * 32U) >> 20U);
 80016fa:	4b29      	ldr	r3, [pc, #164]	; (80017a0 <SPI_WaitFlagStateUntilTimeout.constprop.0+0xc4>)
 80016fc:	681b      	ldr	r3, [r3, #0]
 80016fe:	015b      	lsls	r3, r3, #5
 8001700:	0d1b      	lsrs	r3, r3, #20
 8001702:	436b      	muls	r3, r5
 8001704:	9301      	str	r3, [sp, #4]

  while ((__HAL_SPI_GET_FLAG(hspi, Flag) ? SET : RESET) != State)
 8001706:	6839      	ldr	r1, [r7, #0]
 8001708:	1c73      	adds	r3, r6, #1
 800170a:	d108      	bne.n	800171e <SPI_WaitFlagStateUntilTimeout.constprop.0+0x42>
 800170c:	688b      	ldr	r3, [r1, #8]
 800170e:	4023      	ands	r3, r4
 8001710:	42a3      	cmp	r3, r4
 8001712:	d0fb      	beq.n	800170c <SPI_WaitFlagStateUntilTimeout.constprop.0+0x30>
      }
      count--;
    }
  }

  return HAL_OK;
 8001714:	2000      	movs	r0, #0
}
 8001716:	b002      	add	sp, #8
 8001718:	bc80      	pop	{r7}
 800171a:	46b8      	mov	r8, r7
 800171c:	bdf0      	pop	{r4, r5, r6, r7, pc}
  while ((__HAL_SPI_GET_FLAG(hspi, Flag) ? SET : RESET) != State)
 800171e:	688b      	ldr	r3, [r1, #8]
 8001720:	4023      	ands	r3, r4
 8001722:	429c      	cmp	r4, r3
 8001724:	d1f6      	bne.n	8001714 <SPI_WaitFlagStateUntilTimeout.constprop.0+0x38>
      if (((HAL_GetTick() - tmp_tickstart) >= tmp_timeout) || (tmp_timeout == 0U))
 8001726:	f7ff f987 	bl	8000a38 <HAL_GetTick>
 800172a:	4643      	mov	r3, r8
 800172c:	1ac0      	subs	r0, r0, r3
 800172e:	42a8      	cmp	r0, r5
 8001730:	d208      	bcs.n	8001744 <SPI_WaitFlagStateUntilTimeout.constprop.0+0x68>
      if(count == 0U)
 8001732:	9b01      	ldr	r3, [sp, #4]
        tmp_timeout = 0U;
 8001734:	1e5a      	subs	r2, r3, #1
 8001736:	4193      	sbcs	r3, r2
 8001738:	425b      	negs	r3, r3
 800173a:	401d      	ands	r5, r3
      count--;
 800173c:	9b01      	ldr	r3, [sp, #4]
 800173e:	3b01      	subs	r3, #1
 8001740:	9301      	str	r3, [sp, #4]
 8001742:	e7e0      	b.n	8001706 <SPI_WaitFlagStateUntilTimeout.constprop.0+0x2a>
        __HAL_SPI_DISABLE_IT(hspi, (SPI_IT_TXE | SPI_IT_RXNE | SPI_IT_ERR));
 8001744:	21e0      	movs	r1, #224	; 0xe0
 8001746:	683b      	ldr	r3, [r7, #0]
 8001748:	685a      	ldr	r2, [r3, #4]
 800174a:	438a      	bics	r2, r1
 800174c:	605a      	str	r2, [r3, #4]
        if ((hspi->Init.Mode == SPI_MODE_MASTER) && ((hspi->Init.Direction == SPI_DIRECTION_1LINE)
 800174e:	2282      	movs	r2, #130	; 0x82
 8001750:	6879      	ldr	r1, [r7, #4]
 8001752:	0052      	lsls	r2, r2, #1
 8001754:	4291      	cmp	r1, r2
 8001756:	d014      	beq.n	8001782 <SPI_WaitFlagStateUntilTimeout.constprop.0+0xa6>
        if (hspi->Init.CRCCalculation == SPI_CRCCALCULATION_ENABLE)
 8001758:	2180      	movs	r1, #128	; 0x80
 800175a:	6aba      	ldr	r2, [r7, #40]	; 0x28
 800175c:	0189      	lsls	r1, r1, #6
 800175e:	428a      	cmp	r2, r1
 8001760:	d007      	beq.n	8001772 <SPI_WaitFlagStateUntilTimeout.constprop.0+0x96>
        hspi->State = HAL_SPI_STATE_READY;
 8001762:	2351      	movs	r3, #81	; 0x51
 8001764:	2201      	movs	r2, #1
 8001766:	54fa      	strb	r2, [r7, r3]
        __HAL_UNLOCK(hspi);
 8001768:	2200      	movs	r2, #0
 800176a:	3b01      	subs	r3, #1
 800176c:	2003      	movs	r0, #3
 800176e:	54fa      	strb	r2, [r7, r3]
        return HAL_TIMEOUT;
 8001770:	e7d1      	b.n	8001716 <SPI_WaitFlagStateUntilTimeout.constprop.0+0x3a>
          SPI_RESET_CRC(hspi);
 8001772:	6819      	ldr	r1, [r3, #0]
 8001774:	480b      	ldr	r0, [pc, #44]	; (80017a4 <SPI_WaitFlagStateUntilTimeout.constprop.0+0xc8>)
 8001776:	4001      	ands	r1, r0
 8001778:	6019      	str	r1, [r3, #0]
 800177a:	6819      	ldr	r1, [r3, #0]
 800177c:	430a      	orrs	r2, r1
 800177e:	601a      	str	r2, [r3, #0]
 8001780:	e7ef      	b.n	8001762 <SPI_WaitFlagStateUntilTimeout.constprop.0+0x86>
        if ((hspi->Init.Mode == SPI_MODE_MASTER) && ((hspi->Init.Direction == SPI_DIRECTION_1LINE)
 8001782:	2180      	movs	r1, #128	; 0x80
 8001784:	68ba      	ldr	r2, [r7, #8]
 8001786:	0209      	lsls	r1, r1, #8
 8001788:	428a      	cmp	r2, r1
 800178a:	d003      	beq.n	8001794 <SPI_WaitFlagStateUntilTimeout.constprop.0+0xb8>
                                                     || (hspi->Init.Direction == SPI_DIRECTION_2LINES_RXONLY)))
 800178c:	2180      	movs	r1, #128	; 0x80
 800178e:	00c9      	lsls	r1, r1, #3
 8001790:	428a      	cmp	r2, r1
 8001792:	d1e1      	bne.n	8001758 <SPI_WaitFlagStateUntilTimeout.constprop.0+0x7c>
          __HAL_SPI_DISABLE(hspi);
 8001794:	2140      	movs	r1, #64	; 0x40
 8001796:	681a      	ldr	r2, [r3, #0]
 8001798:	438a      	bics	r2, r1
 800179a:	601a      	str	r2, [r3, #0]
 800179c:	e7dc      	b.n	8001758 <SPI_WaitFlagStateUntilTimeout.constprop.0+0x7c>
 800179e:	46c0      	nop			; (mov r8, r8)
 80017a0:	20000000 	.word	0x20000000
 80017a4:	ffffdfff 	.word	0xffffdfff

080017a8 <HAL_SPI_Init>:
{
 80017a8:	b5f8      	push	{r3, r4, r5, r6, r7, lr}
 80017aa:	46ce      	mov	lr, r9
 80017ac:	4647      	mov	r7, r8
 80017ae:	0004      	movs	r4, r0
 80017b0:	b580      	push	{r7, lr}
  if (hspi == NULL)
 80017b2:	2800      	cmp	r0, #0
 80017b4:	d06a      	beq.n	800188c <HAL_SPI_Init+0xe4>
  if (hspi->Init.TIMode == SPI_TIMODE_DISABLE)
 80017b6:	6a40      	ldr	r0, [r0, #36]	; 0x24
 80017b8:	2800      	cmp	r0, #0
 80017ba:	d04f      	beq.n	800185c <HAL_SPI_Init+0xb4>
    hspi->Init.CLKPolarity = SPI_POLARITY_LOW;
 80017bc:	2300      	movs	r3, #0
 80017be:	6123      	str	r3, [r4, #16]
    hspi->Init.CLKPhase    = SPI_PHASE_1EDGE;
 80017c0:	6163      	str	r3, [r4, #20]
  hspi->Init.CRCCalculation = SPI_CRCCALCULATION_DISABLE;
 80017c2:	2300      	movs	r3, #0
 80017c4:	62a3      	str	r3, [r4, #40]	; 0x28
  if (hspi->State == HAL_SPI_STATE_RESET)
 80017c6:	3351      	adds	r3, #81	; 0x51
 80017c8:	5ce3      	ldrb	r3, [r4, r3]
 80017ca:	2600      	movs	r6, #0
 80017cc:	2b00      	cmp	r3, #0
 80017ce:	d052      	beq.n	8001876 <HAL_SPI_Init+0xce>
  hspi->State = HAL_SPI_STATE_BUSY;
 80017d0:	2351      	movs	r3, #81	; 0x51
 80017d2:	4698      	mov	r8, r3
 80017d4:	4642      	mov	r2, r8
  WRITE_REG(hspi->Instance->CR1, ((hspi->Init.Mode & (SPI_CR1_MSTR | SPI_CR1_SSI)) |
 80017d6:	2784      	movs	r7, #132	; 0x84
  hspi->State = HAL_SPI_STATE_BUSY;
 80017d8:	3b4f      	subs	r3, #79	; 0x4f
 80017da:	54a3      	strb	r3, [r4, r2]
  __HAL_SPI_DISABLE(hspi);
 80017dc:	6822      	ldr	r2, [r4, #0]
  WRITE_REG(hspi->Instance->CR1, ((hspi->Init.Mode & (SPI_CR1_MSTR | SPI_CR1_SSI)) |
 80017de:	6865      	ldr	r5, [r4, #4]
  __HAL_SPI_DISABLE(hspi);
 80017e0:	6811      	ldr	r1, [r2, #0]
  hspi->State = HAL_SPI_STATE_BUSY;
 80017e2:	469c      	mov	ip, r3
  __HAL_SPI_DISABLE(hspi);
 80017e4:	333e      	adds	r3, #62	; 0x3e
 80017e6:	4399      	bics	r1, r3
  WRITE_REG(hspi->Instance->CR1, ((hspi->Init.Mode & (SPI_CR1_MSTR | SPI_CR1_SSI)) |
 80017e8:	33c4      	adds	r3, #196	; 0xc4
 80017ea:	402b      	ands	r3, r5
 80017ec:	68a5      	ldr	r5, [r4, #8]
 80017ee:	023f      	lsls	r7, r7, #8
 80017f0:	402f      	ands	r7, r5
 80017f2:	433b      	orrs	r3, r7
 80017f4:	2780      	movs	r7, #128	; 0x80
 80017f6:	68e5      	ldr	r5, [r4, #12]
 80017f8:	013f      	lsls	r7, r7, #4
 80017fa:	402f      	ands	r7, r5
 80017fc:	433b      	orrs	r3, r7
 80017fe:	4667      	mov	r7, ip
 8001800:	6925      	ldr	r5, [r4, #16]
  __HAL_SPI_DISABLE(hspi);
 8001802:	6011      	str	r1, [r2, #0]
  WRITE_REG(hspi->Instance->CR1, ((hspi->Init.Mode & (SPI_CR1_MSTR | SPI_CR1_SSI)) |
 8001804:	402f      	ands	r7, r5
 8001806:	2501      	movs	r5, #1
 8001808:	46a9      	mov	r9, r5
 800180a:	433b      	orrs	r3, r7
 800180c:	464f      	mov	r7, r9
 800180e:	6965      	ldr	r5, [r4, #20]
 8001810:	69a1      	ldr	r1, [r4, #24]
 8001812:	403d      	ands	r5, r7
 8001814:	432b      	orrs	r3, r5
 8001816:	2580      	movs	r5, #128	; 0x80
 8001818:	00ad      	lsls	r5, r5, #2
 800181a:	400d      	ands	r5, r1
 800181c:	432b      	orrs	r3, r5
 800181e:	2538      	movs	r5, #56	; 0x38
 8001820:	69e7      	ldr	r7, [r4, #28]
  WRITE_REG(hspi->Instance->CR2, (((hspi->Init.NSS >> 16U) & SPI_CR2_SSOE) | (hspi->Init.TIMode & SPI_CR2_FRF)));
 8001822:	0c09      	lsrs	r1, r1, #16
  WRITE_REG(hspi->Instance->CR1, ((hspi->Init.Mode & (SPI_CR1_MSTR | SPI_CR1_SSI)) |
 8001824:	403d      	ands	r5, r7
 8001826:	432b      	orrs	r3, r5
 8001828:	2580      	movs	r5, #128	; 0x80
 800182a:	6a27      	ldr	r7, [r4, #32]
 800182c:	403d      	ands	r5, r7
 800182e:	432b      	orrs	r3, r5
 8001830:	4333      	orrs	r3, r6
 8001832:	6013      	str	r3, [r2, #0]
  WRITE_REG(hspi->Instance->CR2, (((hspi->Init.NSS >> 16U) & SPI_CR2_SSOE) | (hspi->Init.TIMode & SPI_CR2_FRF)));
 8001834:	2304      	movs	r3, #4
 8001836:	4019      	ands	r1, r3
 8001838:	330c      	adds	r3, #12
 800183a:	4018      	ands	r0, r3
 800183c:	4308      	orrs	r0, r1
 800183e:	6050      	str	r0, [r2, #4]
  CLEAR_BIT(hspi->Instance->I2SCFGR, SPI_I2SCFGR_I2SMOD);
 8001840:	69d3      	ldr	r3, [r2, #28]
 8001842:	4913      	ldr	r1, [pc, #76]	; (8001890 <HAL_SPI_Init+0xe8>)
  return HAL_OK;
 8001844:	2000      	movs	r0, #0
  CLEAR_BIT(hspi->Instance->I2SCFGR, SPI_I2SCFGR_I2SMOD);
 8001846:	400b      	ands	r3, r1
 8001848:	61d3      	str	r3, [r2, #28]
  hspi->ErrorCode = HAL_SPI_ERROR_NONE;
 800184a:	2300      	movs	r3, #0
  hspi->State     = HAL_SPI_STATE_READY;
 800184c:	464a      	mov	r2, r9
  hspi->ErrorCode = HAL_SPI_ERROR_NONE;
 800184e:	6563      	str	r3, [r4, #84]	; 0x54
  hspi->State     = HAL_SPI_STATE_READY;
 8001850:	4643      	mov	r3, r8
 8001852:	54e2      	strb	r2, [r4, r3]
}
 8001854:	bcc0      	pop	{r6, r7}
 8001856:	46b9      	mov	r9, r7
 8001858:	46b0      	mov	r8, r6
 800185a:	bdf8      	pop	{r3, r4, r5, r6, r7, pc}
    if (hspi->Init.Mode == SPI_MODE_MASTER)
 800185c:	2382      	movs	r3, #130	; 0x82
 800185e:	6862      	ldr	r2, [r4, #4]
 8001860:	005b      	lsls	r3, r3, #1
 8001862:	429a      	cmp	r2, r3
 8001864:	d0ad      	beq.n	80017c2 <HAL_SPI_Init+0x1a>
  hspi->Init.CRCCalculation = SPI_CRCCALCULATION_DISABLE;
 8001866:	2300      	movs	r3, #0
      hspi->Init.BaudRatePrescaler = SPI_BAUDRATEPRESCALER_2;
 8001868:	61e0      	str	r0, [r4, #28]
  hspi->Init.CRCCalculation = SPI_CRCCALCULATION_DISABLE;
 800186a:	62a3      	str	r3, [r4, #40]	; 0x28
  if (hspi->State == HAL_SPI_STATE_RESET)
 800186c:	3351      	adds	r3, #81	; 0x51
 800186e:	5ce3      	ldrb	r3, [r4, r3]
 8001870:	2600      	movs	r6, #0
 8001872:	2b00      	cmp	r3, #0
 8001874:	d1ac      	bne.n	80017d0 <HAL_SPI_Init+0x28>
    hspi->Lock = HAL_UNLOCKED;
 8001876:	3350      	adds	r3, #80	; 0x50
 8001878:	54e6      	strb	r6, [r4, r3]
    HAL_SPI_MspInit(hspi);
 800187a:	2680      	movs	r6, #128	; 0x80
 800187c:	0020      	movs	r0, r4
 800187e:	f7fe ff75 	bl	800076c <HAL_SPI_MspInit>
 8001882:	6aa3      	ldr	r3, [r4, #40]	; 0x28
 8001884:	01b6      	lsls	r6, r6, #6
 8001886:	6a60      	ldr	r0, [r4, #36]	; 0x24
 8001888:	401e      	ands	r6, r3
 800188a:	e7a1      	b.n	80017d0 <HAL_SPI_Init+0x28>
    return HAL_ERROR;
 800188c:	2001      	movs	r0, #1
 800188e:	e7e1      	b.n	8001854 <HAL_SPI_Init+0xac>
 8001890:	fffff7ff 	.word	0xfffff7ff

08001894 <HAL_SPI_Transmit>:
{
 8001894:	b5f0      	push	{r4, r5, r6, r7, lr}
 8001896:	4647      	mov	r7, r8
 8001898:	46ce      	mov	lr, r9
 800189a:	001d      	movs	r5, r3
  __HAL_LOCK(hspi);
 800189c:	2350      	movs	r3, #80	; 0x50
{
 800189e:	b580      	push	{r7, lr}
 80018a0:	4690      	mov	r8, r2
  __HAL_LOCK(hspi);
 80018a2:	5cc2      	ldrb	r2, [r0, r3]
{
 80018a4:	0004      	movs	r4, r0
 80018a6:	000f      	movs	r7, r1
 80018a8:	b083      	sub	sp, #12
  __HAL_LOCK(hspi);
 80018aa:	2a01      	cmp	r2, #1
 80018ac:	d100      	bne.n	80018b0 <HAL_SPI_Transmit+0x1c>
 80018ae:	e085      	b.n	80019bc <HAL_SPI_Transmit+0x128>
 80018b0:	2201      	movs	r2, #1
 80018b2:	54c2      	strb	r2, [r0, r3]
  tickstart = HAL_GetTick();
 80018b4:	f7ff f8c0 	bl	8000a38 <HAL_GetTick>
  if (hspi->State != HAL_SPI_STATE_READY)
 80018b8:	2251      	movs	r2, #81	; 0x51
 80018ba:	5ca3      	ldrb	r3, [r4, r2]
  tickstart = HAL_GetTick();
 80018bc:	0006      	movs	r6, r0
  if (hspi->State != HAL_SPI_STATE_READY)
 80018be:	b2d8      	uxtb	r0, r3
 80018c0:	2b01      	cmp	r3, #1
 80018c2:	d00b      	beq.n	80018dc <HAL_SPI_Transmit+0x48>
    errorcode = HAL_BUSY;
 80018c4:	2002      	movs	r0, #2
  hspi->State = HAL_SPI_STATE_READY;
 80018c6:	2351      	movs	r3, #81	; 0x51
 80018c8:	2201      	movs	r2, #1
 80018ca:	54e2      	strb	r2, [r4, r3]
  __HAL_UNLOCK(hspi);
 80018cc:	2200      	movs	r2, #0
 80018ce:	3b01      	subs	r3, #1
 80018d0:	54e2      	strb	r2, [r4, r3]
}
 80018d2:	b003      	add	sp, #12
 80018d4:	bcc0      	pop	{r6, r7}
 80018d6:	46b9      	mov	r9, r7
 80018d8:	46b0      	mov	r8, r6
 80018da:	bdf0      	pop	{r4, r5, r6, r7, pc}
  if ((pData == NULL) || (Size == 0U))
 80018dc:	2f00      	cmp	r7, #0
 80018de:	d0f2      	beq.n	80018c6 <HAL_SPI_Transmit+0x32>
 80018e0:	4643      	mov	r3, r8
 80018e2:	2b00      	cmp	r3, #0
 80018e4:	d0ef      	beq.n	80018c6 <HAL_SPI_Transmit+0x32>
  hspi->State       = HAL_SPI_STATE_BUSY_TX;
 80018e6:	2303      	movs	r3, #3
 80018e8:	54a3      	strb	r3, [r4, r2]
  hspi->ErrorCode   = HAL_SPI_ERROR_NONE;
 80018ea:	2300      	movs	r3, #0
  hspi->TxXferSize  = Size;
 80018ec:	4642      	mov	r2, r8
  hspi->ErrorCode   = HAL_SPI_ERROR_NONE;
 80018ee:	6563      	str	r3, [r4, #84]	; 0x54
  hspi->pRxBuffPtr  = (uint8_t *)NULL;
 80018f0:	63a3      	str	r3, [r4, #56]	; 0x38
  hspi->TxXferCount = Size;
 80018f2:	86e2      	strh	r2, [r4, #54]	; 0x36
  hspi->RxXferSize  = 0U;
 80018f4:	87a3      	strh	r3, [r4, #60]	; 0x3c
  hspi->RxXferCount = 0U;
 80018f6:	87e3      	strh	r3, [r4, #62]	; 0x3e
  hspi->TxISR       = NULL;
 80018f8:	6463      	str	r3, [r4, #68]	; 0x44
  hspi->RxISR       = NULL;
 80018fa:	6423      	str	r3, [r4, #64]	; 0x40
  if (hspi->Init.Direction == SPI_DIRECTION_1LINE)
 80018fc:	2380      	movs	r3, #128	; 0x80
  hspi->TxXferSize  = Size;
 80018fe:	86a2      	strh	r2, [r4, #52]	; 0x34
  if (hspi->Init.Direction == SPI_DIRECTION_1LINE)
 8001900:	68a2      	ldr	r2, [r4, #8]
  hspi->pTxBuffPtr  = (uint8_t *)pData;
 8001902:	6327      	str	r7, [r4, #48]	; 0x30
  if (hspi->Init.Direction == SPI_DIRECTION_1LINE)
 8001904:	021b      	lsls	r3, r3, #8
 8001906:	429a      	cmp	r2, r3
 8001908:	d05a      	beq.n	80019c0 <HAL_SPI_Transmit+0x12c>
 800190a:	6822      	ldr	r2, [r4, #0]
 800190c:	0013      	movs	r3, r2
  if ((hspi->Instance->CR1 & SPI_CR1_SPE) != SPI_CR1_SPE)
 800190e:	2140      	movs	r1, #64	; 0x40
 8001910:	6810      	ldr	r0, [r2, #0]
 8001912:	4201      	tst	r1, r0
 8001914:	d102      	bne.n	800191c <HAL_SPI_Transmit+0x88>
    __HAL_SPI_ENABLE(hspi);
 8001916:	6810      	ldr	r0, [r2, #0]
 8001918:	4301      	orrs	r1, r0
 800191a:	6011      	str	r1, [r2, #0]
  if (hspi->Init.DataSize == SPI_DATASIZE_16BIT)
 800191c:	2180      	movs	r1, #128	; 0x80
 800191e:	68e0      	ldr	r0, [r4, #12]
 8001920:	0109      	lsls	r1, r1, #4
 8001922:	4288      	cmp	r0, r1
 8001924:	d100      	bne.n	8001928 <HAL_SPI_Transmit+0x94>
 8001926:	e07f      	b.n	8001a28 <HAL_SPI_Transmit+0x194>
    if ((hspi->Init.Mode == SPI_MODE_SLAVE) || (initial_TxXferCount == 0x01U))
 8001928:	6863      	ldr	r3, [r4, #4]
 800192a:	2b00      	cmp	r3, #0
 800192c:	d06c      	beq.n	8001a08 <HAL_SPI_Transmit+0x174>
 800192e:	4643      	mov	r3, r8
 8001930:	2b01      	cmp	r3, #1
 8001932:	d069      	beq.n	8001a08 <HAL_SPI_Transmit+0x174>
    while (hspi->TxXferCount > 0U)
 8001934:	8ee3      	ldrh	r3, [r4, #54]	; 0x36
 8001936:	2b00      	cmp	r3, #0
 8001938:	d013      	beq.n	8001962 <HAL_SPI_Transmit+0xce>
      if (__HAL_SPI_GET_FLAG(hspi, SPI_FLAG_TXE))
 800193a:	2702      	movs	r7, #2
 800193c:	1c6b      	adds	r3, r5, #1
 800193e:	d158      	bne.n	80019f2 <HAL_SPI_Transmit+0x15e>
 8001940:	6823      	ldr	r3, [r4, #0]
 8001942:	689a      	ldr	r2, [r3, #8]
 8001944:	4217      	tst	r7, r2
 8001946:	d069      	beq.n	8001a1c <HAL_SPI_Transmit+0x188>
        *((__IO uint8_t *)&hspi->Instance->DR) = (*hspi->pTxBuffPtr);
 8001948:	6b22      	ldr	r2, [r4, #48]	; 0x30
 800194a:	7812      	ldrb	r2, [r2, #0]
 800194c:	731a      	strb	r2, [r3, #12]
        hspi->pTxBuffPtr += sizeof(uint8_t);
 800194e:	6b23      	ldr	r3, [r4, #48]	; 0x30
 8001950:	1c5a      	adds	r2, r3, #1
 8001952:	6322      	str	r2, [r4, #48]	; 0x30
        hspi->TxXferCount--;
 8001954:	8ee2      	ldrh	r2, [r4, #54]	; 0x36
 8001956:	3a01      	subs	r2, #1
 8001958:	b292      	uxth	r2, r2
 800195a:	86e2      	strh	r2, [r4, #54]	; 0x36
    while (hspi->TxXferCount > 0U)
 800195c:	8ee3      	ldrh	r3, [r4, #54]	; 0x36
 800195e:	2b00      	cmp	r3, #0
 8001960:	d1ee      	bne.n	8001940 <HAL_SPI_Transmit+0xac>
 8001962:	6863      	ldr	r3, [r4, #4]
 8001964:	4699      	mov	r9, r3
  * @retval HAL status
  */
static HAL_StatusTypeDef SPI_EndRxTxTransaction(SPI_HandleTypeDef *hspi, uint32_t Timeout, uint32_t Tickstart)
{
  /* Timeout in s */
  __IO uint32_t count = SPI_BSY_FLAG_WORKAROUND_TIMEOUT * (SystemCoreClock / 24U / 1000000U);
 8001966:	4b5c      	ldr	r3, [pc, #368]	; (8001ad8 <HAL_SPI_Transmit+0x244>)
 8001968:	495c      	ldr	r1, [pc, #368]	; (8001adc <HAL_SPI_Transmit+0x248>)
 800196a:	6818      	ldr	r0, [r3, #0]
 800196c:	f7fe fbcc 	bl	8000108 <__udivsi3>
 8001970:	0002      	movs	r2, r0
  /* Erratasheet: BSY bit may stay high at the end of a data transfer in Slave mode */
  if (hspi->Init.Mode == SPI_MODE_MASTER)
 8001972:	2382      	movs	r3, #130	; 0x82
  __IO uint32_t count = SPI_BSY_FLAG_WORKAROUND_TIMEOUT * (SystemCoreClock / 24U / 1000000U);
 8001974:	0140      	lsls	r0, r0, #5
 8001976:	1a80      	subs	r0, r0, r2
 8001978:	0080      	lsls	r0, r0, #2
 800197a:	1880      	adds	r0, r0, r2
 800197c:	00c0      	lsls	r0, r0, #3
      if (count == 0U)
      {
        break;
      }
      count--;
    } while (__HAL_SPI_GET_FLAG(hspi, SPI_FLAG_BSY) != RESET);
 800197e:	2280      	movs	r2, #128	; 0x80
  __IO uint32_t count = SPI_BSY_FLAG_WORKAROUND_TIMEOUT * (SystemCoreClock / 24U / 1000000U);
 8001980:	9001      	str	r0, [sp, #4]
  if (hspi->Init.Mode == SPI_MODE_MASTER)
 8001982:	005b      	lsls	r3, r3, #1
 8001984:	4599      	cmp	r9, r3
 8001986:	d107      	bne.n	8001998 <HAL_SPI_Transmit+0x104>
 8001988:	e097      	b.n	8001aba <HAL_SPI_Transmit+0x226>
      count--;
 800198a:	9b01      	ldr	r3, [sp, #4]
 800198c:	3b01      	subs	r3, #1
 800198e:	9301      	str	r3, [sp, #4]
    } while (__HAL_SPI_GET_FLAG(hspi, SPI_FLAG_BSY) != RESET);
 8001990:	6823      	ldr	r3, [r4, #0]
 8001992:	689b      	ldr	r3, [r3, #8]
 8001994:	421a      	tst	r2, r3
 8001996:	d002      	beq.n	800199e <HAL_SPI_Transmit+0x10a>
      if (count == 0U)
 8001998:	9b01      	ldr	r3, [sp, #4]
 800199a:	2b00      	cmp	r3, #0
 800199c:	d1f5      	bne.n	800198a <HAL_SPI_Transmit+0xf6>
  if (hspi->Init.Direction == SPI_DIRECTION_2LINES)
 800199e:	68a3      	ldr	r3, [r4, #8]
 80019a0:	2b00      	cmp	r3, #0
 80019a2:	d106      	bne.n	80019b2 <HAL_SPI_Transmit+0x11e>
    __HAL_SPI_CLEAR_OVRFLAG(hspi);
 80019a4:	9300      	str	r3, [sp, #0]
 80019a6:	6823      	ldr	r3, [r4, #0]
 80019a8:	68da      	ldr	r2, [r3, #12]
 80019aa:	9200      	str	r2, [sp, #0]
 80019ac:	689b      	ldr	r3, [r3, #8]
 80019ae:	9300      	str	r3, [sp, #0]
 80019b0:	9b00      	ldr	r3, [sp, #0]
  if (hspi->ErrorCode != HAL_SPI_ERROR_NONE)
 80019b2:	6d60      	ldr	r0, [r4, #84]	; 0x54
 80019b4:	1e43      	subs	r3, r0, #1
 80019b6:	4198      	sbcs	r0, r3
    errorcode = HAL_BUSY;
 80019b8:	b2c0      	uxtb	r0, r0
error:
 80019ba:	e784      	b.n	80018c6 <HAL_SPI_Transmit+0x32>
  __HAL_LOCK(hspi);
 80019bc:	2002      	movs	r0, #2
 80019be:	e788      	b.n	80018d2 <HAL_SPI_Transmit+0x3e>
    __HAL_SPI_DISABLE(hspi);
 80019c0:	2040      	movs	r0, #64	; 0x40
 80019c2:	6822      	ldr	r2, [r4, #0]
 80019c4:	6811      	ldr	r1, [r2, #0]
 80019c6:	0013      	movs	r3, r2
 80019c8:	4381      	bics	r1, r0
 80019ca:	6011      	str	r1, [r2, #0]
    SPI_1LINE_TX(hspi);
 80019cc:	2180      	movs	r1, #128	; 0x80
 80019ce:	6810      	ldr	r0, [r2, #0]
 80019d0:	01c9      	lsls	r1, r1, #7
 80019d2:	4301      	orrs	r1, r0
 80019d4:	6011      	str	r1, [r2, #0]
 80019d6:	e79a      	b.n	800190e <HAL_SPI_Transmit+0x7a>
        *((__IO uint8_t *)&hspi->Instance->DR) = (*hspi->pTxBuffPtr);
 80019d8:	6b22      	ldr	r2, [r4, #48]	; 0x30
 80019da:	7812      	ldrb	r2, [r2, #0]
 80019dc:	731a      	strb	r2, [r3, #12]
        hspi->pTxBuffPtr += sizeof(uint8_t);
 80019de:	6b23      	ldr	r3, [r4, #48]	; 0x30
 80019e0:	3301      	adds	r3, #1
 80019e2:	6323      	str	r3, [r4, #48]	; 0x30
        hspi->TxXferCount--;
 80019e4:	8ee3      	ldrh	r3, [r4, #54]	; 0x36
 80019e6:	3b01      	subs	r3, #1
 80019e8:	b29b      	uxth	r3, r3
 80019ea:	86e3      	strh	r3, [r4, #54]	; 0x36
    while (hspi->TxXferCount > 0U)
 80019ec:	8ee3      	ldrh	r3, [r4, #54]	; 0x36
 80019ee:	2b00      	cmp	r3, #0
 80019f0:	d0b7      	beq.n	8001962 <HAL_SPI_Transmit+0xce>
      if (__HAL_SPI_GET_FLAG(hspi, SPI_FLAG_TXE))
 80019f2:	6823      	ldr	r3, [r4, #0]
 80019f4:	689a      	ldr	r2, [r3, #8]
 80019f6:	4217      	tst	r7, r2
 80019f8:	d1ee      	bne.n	80019d8 <HAL_SPI_Transmit+0x144>
        if ((((HAL_GetTick() - tickstart) >=  Timeout) && (Timeout != HAL_MAX_DELAY)) || (Timeout == 0U))
 80019fa:	f7ff f81d 	bl	8000a38 <HAL_GetTick>
 80019fe:	1b80      	subs	r0, r0, r6
 8001a00:	42a8      	cmp	r0, r5
 8001a02:	d3f3      	bcc.n	80019ec <HAL_SPI_Transmit+0x158>
          errorcode = HAL_TIMEOUT;
 8001a04:	2003      	movs	r0, #3
 8001a06:	e75e      	b.n	80018c6 <HAL_SPI_Transmit+0x32>
      *((__IO uint8_t *)&hspi->Instance->DR) = (*hspi->pTxBuffPtr);
 8001a08:	783b      	ldrb	r3, [r7, #0]
 8001a0a:	7313      	strb	r3, [r2, #12]
      hspi->pTxBuffPtr += sizeof(uint8_t);
 8001a0c:	6b23      	ldr	r3, [r4, #48]	; 0x30
 8001a0e:	3301      	adds	r3, #1
 8001a10:	6323      	str	r3, [r4, #48]	; 0x30
      hspi->TxXferCount--;
 8001a12:	8ee3      	ldrh	r3, [r4, #54]	; 0x36
 8001a14:	3b01      	subs	r3, #1
 8001a16:	b29b      	uxth	r3, r3
 8001a18:	86e3      	strh	r3, [r4, #54]	; 0x36
 8001a1a:	e78b      	b.n	8001934 <HAL_SPI_Transmit+0xa0>
        if ((((HAL_GetTick() - tickstart) >=  Timeout) && (Timeout != HAL_MAX_DELAY)) || (Timeout == 0U))
 8001a1c:	f7ff f80c 	bl	8000a38 <HAL_GetTick>
    while (hspi->TxXferCount > 0U)
 8001a20:	8ee3      	ldrh	r3, [r4, #54]	; 0x36
 8001a22:	2b00      	cmp	r3, #0
 8001a24:	d18c      	bne.n	8001940 <HAL_SPI_Transmit+0xac>
 8001a26:	e79c      	b.n	8001962 <HAL_SPI_Transmit+0xce>
    if ((hspi->Init.Mode == SPI_MODE_SLAVE) || (initial_TxXferCount == 0x01U))
 8001a28:	6861      	ldr	r1, [r4, #4]
 8001a2a:	4689      	mov	r9, r1
 8001a2c:	2900      	cmp	r1, #0
 8001a2e:	d140      	bne.n	8001ab2 <HAL_SPI_Transmit+0x21e>
      hspi->Instance->DR = *((uint16_t *)hspi->pTxBuffPtr);
 8001a30:	8839      	ldrh	r1, [r7, #0]
      hspi->pTxBuffPtr += sizeof(uint16_t);
 8001a32:	3702      	adds	r7, #2
      hspi->Instance->DR = *((uint16_t *)hspi->pTxBuffPtr);
 8001a34:	60d1      	str	r1, [r2, #12]
      hspi->TxXferCount--;
 8001a36:	8ee1      	ldrh	r1, [r4, #54]	; 0x36
      hspi->pTxBuffPtr += sizeof(uint16_t);
 8001a38:	6327      	str	r7, [r4, #48]	; 0x30
      hspi->TxXferCount--;
 8001a3a:	3901      	subs	r1, #1
 8001a3c:	b289      	uxth	r1, r1
 8001a3e:	86e1      	strh	r1, [r4, #54]	; 0x36
    while (hspi->TxXferCount > 0U)
 8001a40:	8ee1      	ldrh	r1, [r4, #54]	; 0x36
 8001a42:	2900      	cmp	r1, #0
 8001a44:	d08f      	beq.n	8001966 <HAL_SPI_Transmit+0xd2>
      if (__HAL_SPI_GET_FLAG(hspi, SPI_FLAG_TXE))
 8001a46:	2702      	movs	r7, #2
 8001a48:	1c69      	adds	r1, r5, #1
 8001a4a:	d128      	bne.n	8001a9e <HAL_SPI_Transmit+0x20a>
 8001a4c:	6893      	ldr	r3, [r2, #8]
 8001a4e:	421f      	tst	r7, r3
 8001a50:	d00f      	beq.n	8001a72 <HAL_SPI_Transmit+0x1de>
        hspi->Instance->DR = *((uint16_t *)hspi->pTxBuffPtr);
 8001a52:	6b23      	ldr	r3, [r4, #48]	; 0x30
 8001a54:	8819      	ldrh	r1, [r3, #0]
        hspi->pTxBuffPtr += sizeof(uint16_t);
 8001a56:	3302      	adds	r3, #2
        hspi->Instance->DR = *((uint16_t *)hspi->pTxBuffPtr);
 8001a58:	60d1      	str	r1, [r2, #12]
        hspi->pTxBuffPtr += sizeof(uint16_t);
 8001a5a:	6323      	str	r3, [r4, #48]	; 0x30
        hspi->TxXferCount--;
 8001a5c:	8ee3      	ldrh	r3, [r4, #54]	; 0x36
 8001a5e:	3b01      	subs	r3, #1
 8001a60:	b29b      	uxth	r3, r3
 8001a62:	86e3      	strh	r3, [r4, #54]	; 0x36
    while (hspi->TxXferCount > 0U)
 8001a64:	8ee3      	ldrh	r3, [r4, #54]	; 0x36
 8001a66:	2b00      	cmp	r3, #0
 8001a68:	d100      	bne.n	8001a6c <HAL_SPI_Transmit+0x1d8>
 8001a6a:	e77a      	b.n	8001962 <HAL_SPI_Transmit+0xce>
      if (__HAL_SPI_GET_FLAG(hspi, SPI_FLAG_TXE))
 8001a6c:	6893      	ldr	r3, [r2, #8]
 8001a6e:	421f      	tst	r7, r3
 8001a70:	d1ef      	bne.n	8001a52 <HAL_SPI_Transmit+0x1be>
        if ((((HAL_GetTick() - tickstart) >=  Timeout) && (Timeout != HAL_MAX_DELAY)) || (Timeout == 0U))
 8001a72:	f7fe ffe1 	bl	8000a38 <HAL_GetTick>
    while (hspi->TxXferCount > 0U)
 8001a76:	8ee3      	ldrh	r3, [r4, #54]	; 0x36
 8001a78:	2b00      	cmp	r3, #0
 8001a7a:	d100      	bne.n	8001a7e <HAL_SPI_Transmit+0x1ea>
 8001a7c:	e771      	b.n	8001962 <HAL_SPI_Transmit+0xce>
 8001a7e:	6822      	ldr	r2, [r4, #0]
 8001a80:	e7e4      	b.n	8001a4c <HAL_SPI_Transmit+0x1b8>
        hspi->Instance->DR = *((uint16_t *)hspi->pTxBuffPtr);
 8001a82:	6b22      	ldr	r2, [r4, #48]	; 0x30
 8001a84:	8811      	ldrh	r1, [r2, #0]
        hspi->pTxBuffPtr += sizeof(uint16_t);
 8001a86:	3202      	adds	r2, #2
        hspi->Instance->DR = *((uint16_t *)hspi->pTxBuffPtr);
 8001a88:	60d9      	str	r1, [r3, #12]
        hspi->TxXferCount--;
 8001a8a:	8ee3      	ldrh	r3, [r4, #54]	; 0x36
        hspi->pTxBuffPtr += sizeof(uint16_t);
 8001a8c:	6322      	str	r2, [r4, #48]	; 0x30
        hspi->TxXferCount--;
 8001a8e:	3b01      	subs	r3, #1
 8001a90:	b29b      	uxth	r3, r3
 8001a92:	86e3      	strh	r3, [r4, #54]	; 0x36
    while (hspi->TxXferCount > 0U)
 8001a94:	8ee3      	ldrh	r3, [r4, #54]	; 0x36
 8001a96:	2b00      	cmp	r3, #0
 8001a98:	d100      	bne.n	8001a9c <HAL_SPI_Transmit+0x208>
 8001a9a:	e762      	b.n	8001962 <HAL_SPI_Transmit+0xce>
 8001a9c:	6823      	ldr	r3, [r4, #0]
      if (__HAL_SPI_GET_FLAG(hspi, SPI_FLAG_TXE))
 8001a9e:	689a      	ldr	r2, [r3, #8]
 8001aa0:	4217      	tst	r7, r2
 8001aa2:	d1ee      	bne.n	8001a82 <HAL_SPI_Transmit+0x1ee>
        if ((((HAL_GetTick() - tickstart) >=  Timeout) && (Timeout != HAL_MAX_DELAY)) || (Timeout == 0U))
 8001aa4:	f7fe ffc8 	bl	8000a38 <HAL_GetTick>
 8001aa8:	1b80      	subs	r0, r0, r6
 8001aaa:	42a8      	cmp	r0, r5
 8001aac:	d3f2      	bcc.n	8001a94 <HAL_SPI_Transmit+0x200>
          errorcode = HAL_TIMEOUT;
 8001aae:	2003      	movs	r0, #3
 8001ab0:	e709      	b.n	80018c6 <HAL_SPI_Transmit+0x32>
    if ((hspi->Init.Mode == SPI_MODE_SLAVE) || (initial_TxXferCount == 0x01U))
 8001ab2:	4641      	mov	r1, r8
 8001ab4:	2901      	cmp	r1, #1
 8001ab6:	d1c3      	bne.n	8001a40 <HAL_SPI_Transmit+0x1ac>
 8001ab8:	e7ba      	b.n	8001a30 <HAL_SPI_Transmit+0x19c>
    if (SPI_WaitFlagStateUntilTimeout(hspi, SPI_FLAG_BSY, RESET, Timeout, Tickstart) != HAL_OK)
 8001aba:	0033      	movs	r3, r6
 8001abc:	002a      	movs	r2, r5
 8001abe:	2180      	movs	r1, #128	; 0x80
 8001ac0:	0020      	movs	r0, r4
 8001ac2:	f7ff fe0b 	bl	80016dc <SPI_WaitFlagStateUntilTimeout.constprop.0>
 8001ac6:	2800      	cmp	r0, #0
 8001ac8:	d100      	bne.n	8001acc <HAL_SPI_Transmit+0x238>
 8001aca:	e768      	b.n	800199e <HAL_SPI_Transmit+0x10a>
      SET_BIT(hspi->ErrorCode, HAL_SPI_ERROR_FLAG);
 8001acc:	2220      	movs	r2, #32
 8001ace:	6d63      	ldr	r3, [r4, #84]	; 0x54
 8001ad0:	4313      	orrs	r3, r2
 8001ad2:	6563      	str	r3, [r4, #84]	; 0x54
    hspi->ErrorCode = HAL_SPI_ERROR_FLAG;
 8001ad4:	6562      	str	r2, [r4, #84]	; 0x54
 8001ad6:	e762      	b.n	800199e <HAL_SPI_Transmit+0x10a>
 8001ad8:	20000000 	.word	0x20000000
 8001adc:	016e3600 	.word	0x016e3600

08001ae0 <HAL_SPI_TransmitReceive>:
{
 8001ae0:	b5f0      	push	{r4, r5, r6, r7, lr}
 8001ae2:	46c6      	mov	lr, r8
 8001ae4:	001d      	movs	r5, r3
  __HAL_LOCK(hspi);
 8001ae6:	2350      	movs	r3, #80	; 0x50
{
 8001ae8:	b500      	push	{lr}
 8001aea:	0017      	movs	r7, r2
  __HAL_LOCK(hspi);
 8001aec:	5cc2      	ldrb	r2, [r0, r3]
{
 8001aee:	0004      	movs	r4, r0
 8001af0:	000e      	movs	r6, r1
 8001af2:	b082      	sub	sp, #8
  __HAL_LOCK(hspi);
 8001af4:	2a01      	cmp	r2, #1
 8001af6:	d100      	bne.n	8001afa <HAL_SPI_TransmitReceive+0x1a>
 8001af8:	e0ac      	b.n	8001c54 <HAL_SPI_TransmitReceive+0x174>
 8001afa:	2201      	movs	r2, #1
 8001afc:	54c2      	strb	r2, [r0, r3]
  tickstart = HAL_GetTick();
 8001afe:	f7fe ff9b 	bl	8000a38 <HAL_GetTick>
  tmp_state           = hspi->State;
 8001b02:	2351      	movs	r3, #81	; 0x51
 8001b04:	5ce3      	ldrb	r3, [r4, r3]
  tickstart = HAL_GetTick();
 8001b06:	4680      	mov	r8, r0
  tmp_mode            = hspi->Init.Mode;
 8001b08:	6862      	ldr	r2, [r4, #4]
  tmp_state           = hspi->State;
 8001b0a:	b2d9      	uxtb	r1, r3
  if (!((tmp_state == HAL_SPI_STATE_READY) || \
 8001b0c:	2b01      	cmp	r3, #1
 8001b0e:	d013      	beq.n	8001b38 <HAL_SPI_TransmitReceive+0x58>
 8001b10:	2382      	movs	r3, #130	; 0x82
    errorcode = HAL_BUSY;
 8001b12:	2002      	movs	r0, #2
  if (!((tmp_state == HAL_SPI_STATE_READY) || \
 8001b14:	005b      	lsls	r3, r3, #1
 8001b16:	429a      	cmp	r2, r3
 8001b18:	d009      	beq.n	8001b2e <HAL_SPI_TransmitReceive+0x4e>
  hspi->State = HAL_SPI_STATE_READY;
 8001b1a:	2351      	movs	r3, #81	; 0x51
 8001b1c:	2201      	movs	r2, #1
 8001b1e:	54e2      	strb	r2, [r4, r3]
  __HAL_UNLOCK(hspi);
 8001b20:	2200      	movs	r2, #0
 8001b22:	3b01      	subs	r3, #1
 8001b24:	54e2      	strb	r2, [r4, r3]
}
 8001b26:	b002      	add	sp, #8
 8001b28:	bc80      	pop	{r7}
 8001b2a:	46b8      	mov	r8, r7
 8001b2c:	bdf0      	pop	{r4, r5, r6, r7, pc}
        ((tmp_mode == SPI_MODE_MASTER) && (hspi->Init.Direction == SPI_DIRECTION_2LINES) && (tmp_state == HAL_SPI_STATE_BUSY_RX))))
 8001b2e:	68a3      	ldr	r3, [r4, #8]
 8001b30:	2b00      	cmp	r3, #0
 8001b32:	d1f2      	bne.n	8001b1a <HAL_SPI_TransmitReceive+0x3a>
 8001b34:	2904      	cmp	r1, #4
 8001b36:	d1f0      	bne.n	8001b1a <HAL_SPI_TransmitReceive+0x3a>
  if ((pTxData == NULL) || (pRxData == NULL) || (Size == 0U))
 8001b38:	2e00      	cmp	r6, #0
 8001b3a:	d100      	bne.n	8001b3e <HAL_SPI_TransmitReceive+0x5e>
 8001b3c:	e08c      	b.n	8001c58 <HAL_SPI_TransmitReceive+0x178>
 8001b3e:	2f00      	cmp	r7, #0
 8001b40:	d100      	bne.n	8001b44 <HAL_SPI_TransmitReceive+0x64>
 8001b42:	e089      	b.n	8001c58 <HAL_SPI_TransmitReceive+0x178>
 8001b44:	2d00      	cmp	r5, #0
 8001b46:	d100      	bne.n	8001b4a <HAL_SPI_TransmitReceive+0x6a>
 8001b48:	e086      	b.n	8001c58 <HAL_SPI_TransmitReceive+0x178>
  if (hspi->State != HAL_SPI_STATE_BUSY_RX)
 8001b4a:	2351      	movs	r3, #81	; 0x51
 8001b4c:	5ce1      	ldrb	r1, [r4, r3]
 8001b4e:	2904      	cmp	r1, #4
 8001b50:	d001      	beq.n	8001b56 <HAL_SPI_TransmitReceive+0x76>
    hspi->State = HAL_SPI_STATE_BUSY_TX_RX;
 8001b52:	2105      	movs	r1, #5
 8001b54:	54e1      	strb	r1, [r4, r3]
  hspi->ErrorCode   = HAL_SPI_ERROR_NONE;
 8001b56:	2300      	movs	r3, #0
  if ((hspi->Instance->CR1 & SPI_CR1_SPE) != SPI_CR1_SPE)
 8001b58:	2140      	movs	r1, #64	; 0x40
  hspi->ErrorCode   = HAL_SPI_ERROR_NONE;
 8001b5a:	6563      	str	r3, [r4, #84]	; 0x54
  hspi->RxISR       = NULL;
 8001b5c:	6423      	str	r3, [r4, #64]	; 0x40
  hspi->TxISR       = NULL;
 8001b5e:	6463      	str	r3, [r4, #68]	; 0x44
  if ((hspi->Instance->CR1 & SPI_CR1_SPE) != SPI_CR1_SPE)
 8001b60:	6823      	ldr	r3, [r4, #0]
  hspi->RxXferCount = Size;
 8001b62:	87e5      	strh	r5, [r4, #62]	; 0x3e
  hspi->TxXferCount = Size;
 8001b64:	86e5      	strh	r5, [r4, #54]	; 0x36
  if ((hspi->Instance->CR1 & SPI_CR1_SPE) != SPI_CR1_SPE)
 8001b66:	6818      	ldr	r0, [r3, #0]
  hspi->pRxBuffPtr  = (uint8_t *)pRxData;
 8001b68:	63a7      	str	r7, [r4, #56]	; 0x38
  hspi->RxXferSize  = Size;
 8001b6a:	87a5      	strh	r5, [r4, #60]	; 0x3c
  hspi->pTxBuffPtr  = (uint8_t *)pTxData;
 8001b6c:	6326      	str	r6, [r4, #48]	; 0x30
  hspi->TxXferSize  = Size;
 8001b6e:	86a5      	strh	r5, [r4, #52]	; 0x34
  if ((hspi->Instance->CR1 & SPI_CR1_SPE) != SPI_CR1_SPE)
 8001b70:	4201      	tst	r1, r0
 8001b72:	d102      	bne.n	8001b7a <HAL_SPI_TransmitReceive+0x9a>
    __HAL_SPI_ENABLE(hspi);
 8001b74:	6818      	ldr	r0, [r3, #0]
 8001b76:	4301      	orrs	r1, r0
 8001b78:	6019      	str	r1, [r3, #0]
  if (hspi->Init.DataSize == SPI_DATASIZE_16BIT)
 8001b7a:	2180      	movs	r1, #128	; 0x80
 8001b7c:	68e0      	ldr	r0, [r4, #12]
 8001b7e:	0109      	lsls	r1, r1, #4
 8001b80:	4288      	cmp	r0, r1
 8001b82:	d100      	bne.n	8001b86 <HAL_SPI_TransmitReceive+0xa6>
 8001b84:	e0de      	b.n	8001d44 <HAL_SPI_TransmitReceive+0x264>
    if ((hspi->Init.Mode == SPI_MODE_SLAVE) || (initial_TxXferCount == 0x01U))
 8001b86:	2a00      	cmp	r2, #0
 8001b88:	d100      	bne.n	8001b8c <HAL_SPI_TransmitReceive+0xac>
 8001b8a:	e0d1      	b.n	8001d30 <HAL_SPI_TransmitReceive+0x250>
 8001b8c:	2d01      	cmp	r5, #1
 8001b8e:	d100      	bne.n	8001b92 <HAL_SPI_TransmitReceive+0xb2>
 8001b90:	e0ce      	b.n	8001d30 <HAL_SPI_TransmitReceive+0x250>
 8001b92:	9b08      	ldr	r3, [sp, #32]
        txallowed = 1U;
 8001b94:	2701      	movs	r7, #1
      if ((__HAL_SPI_GET_FLAG(hspi, SPI_FLAG_TXE)) && (hspi->TxXferCount > 0U) && (txallowed == 1U))
 8001b96:	2602      	movs	r6, #2
      if ((__HAL_SPI_GET_FLAG(hspi, SPI_FLAG_RXNE)) && (hspi->RxXferCount > 0U))
 8001b98:	2501      	movs	r5, #1
 8001b9a:	3301      	adds	r3, #1
 8001b9c:	d02a      	beq.n	8001bf4 <HAL_SPI_TransmitReceive+0x114>
 8001b9e:	e085      	b.n	8001cac <HAL_SPI_TransmitReceive+0x1cc>
      if ((__HAL_SPI_GET_FLAG(hspi, SPI_FLAG_TXE)) && (hspi->TxXferCount > 0U) && (txallowed == 1U))
 8001ba0:	6823      	ldr	r3, [r4, #0]
 8001ba2:	689a      	ldr	r2, [r3, #8]
 8001ba4:	4216      	tst	r6, r2
 8001ba6:	d010      	beq.n	8001bca <HAL_SPI_TransmitReceive+0xea>
 8001ba8:	8ee2      	ldrh	r2, [r4, #54]	; 0x36
 8001baa:	2a00      	cmp	r2, #0
 8001bac:	d00d      	beq.n	8001bca <HAL_SPI_TransmitReceive+0xea>
 8001bae:	2f01      	cmp	r7, #1
 8001bb0:	d10b      	bne.n	8001bca <HAL_SPI_TransmitReceive+0xea>
        txallowed = 0U;
 8001bb2:	2700      	movs	r7, #0
        *(__IO uint8_t *)&hspi->Instance->DR = (*hspi->pTxBuffPtr);
 8001bb4:	6b22      	ldr	r2, [r4, #48]	; 0x30
 8001bb6:	7812      	ldrb	r2, [r2, #0]
 8001bb8:	731a      	strb	r2, [r3, #12]
        hspi->pTxBuffPtr++;
 8001bba:	6b23      	ldr	r3, [r4, #48]	; 0x30
 8001bbc:	3301      	adds	r3, #1
 8001bbe:	6323      	str	r3, [r4, #48]	; 0x30
        hspi->TxXferCount--;
 8001bc0:	8ee3      	ldrh	r3, [r4, #54]	; 0x36
 8001bc2:	3b01      	subs	r3, #1
 8001bc4:	b29b      	uxth	r3, r3
 8001bc6:	86e3      	strh	r3, [r4, #54]	; 0x36
        txallowed = 0U;
 8001bc8:	6823      	ldr	r3, [r4, #0]
      if ((__HAL_SPI_GET_FLAG(hspi, SPI_FLAG_RXNE)) && (hspi->RxXferCount > 0U))
 8001bca:	0029      	movs	r1, r5
 8001bcc:	689a      	ldr	r2, [r3, #8]
 8001bce:	4011      	ands	r1, r2
 8001bd0:	4215      	tst	r5, r2
 8001bd2:	d00d      	beq.n	8001bf0 <HAL_SPI_TransmitReceive+0x110>
 8001bd4:	8fe2      	ldrh	r2, [r4, #62]	; 0x3e
 8001bd6:	2a00      	cmp	r2, #0
 8001bd8:	d00a      	beq.n	8001bf0 <HAL_SPI_TransmitReceive+0x110>
        txallowed = 1U;
 8001bda:	000f      	movs	r7, r1
        (*(uint8_t *)hspi->pRxBuffPtr) = hspi->Instance->DR;
 8001bdc:	68db      	ldr	r3, [r3, #12]
 8001bde:	6ba2      	ldr	r2, [r4, #56]	; 0x38
 8001be0:	7013      	strb	r3, [r2, #0]
        hspi->pRxBuffPtr++;
 8001be2:	6ba3      	ldr	r3, [r4, #56]	; 0x38
 8001be4:	3301      	adds	r3, #1
 8001be6:	63a3      	str	r3, [r4, #56]	; 0x38
        hspi->RxXferCount--;
 8001be8:	8fe3      	ldrh	r3, [r4, #62]	; 0x3e
 8001bea:	3b01      	subs	r3, #1
 8001bec:	b29b      	uxth	r3, r3
 8001bee:	87e3      	strh	r3, [r4, #62]	; 0x3e
      if ((((HAL_GetTick() - tickstart) >=  Timeout) && ((Timeout != HAL_MAX_DELAY))) || (Timeout == 0U))
 8001bf0:	f7fe ff22 	bl	8000a38 <HAL_GetTick>
    while ((hspi->TxXferCount > 0U) || (hspi->RxXferCount > 0U))
 8001bf4:	8ee3      	ldrh	r3, [r4, #54]	; 0x36
 8001bf6:	2b00      	cmp	r3, #0
 8001bf8:	d1d2      	bne.n	8001ba0 <HAL_SPI_TransmitReceive+0xc0>
 8001bfa:	8fe3      	ldrh	r3, [r4, #62]	; 0x3e
 8001bfc:	2b00      	cmp	r3, #0
 8001bfe:	d1cf      	bne.n	8001ba0 <HAL_SPI_TransmitReceive+0xc0>
  __IO uint32_t count = SPI_BSY_FLAG_WORKAROUND_TIMEOUT * (SystemCoreClock / 24U / 1000000U);
 8001c00:	4b79      	ldr	r3, [pc, #484]	; (8001de8 <HAL_SPI_TransmitReceive+0x308>)
 8001c02:	497a      	ldr	r1, [pc, #488]	; (8001dec <HAL_SPI_TransmitReceive+0x30c>)
 8001c04:	6818      	ldr	r0, [r3, #0]
 8001c06:	f7fe fa7f 	bl	8000108 <__udivsi3>
 8001c0a:	0002      	movs	r2, r0
  if (hspi->Init.Mode == SPI_MODE_MASTER)
 8001c0c:	2382      	movs	r3, #130	; 0x82
  __IO uint32_t count = SPI_BSY_FLAG_WORKAROUND_TIMEOUT * (SystemCoreClock / 24U / 1000000U);
 8001c0e:	0140      	lsls	r0, r0, #5
 8001c10:	1a80      	subs	r0, r0, r2
 8001c12:	0080      	lsls	r0, r0, #2
 8001c14:	1880      	adds	r0, r0, r2
  if (hspi->Init.Mode == SPI_MODE_MASTER)
 8001c16:	6862      	ldr	r2, [r4, #4]
  __IO uint32_t count = SPI_BSY_FLAG_WORKAROUND_TIMEOUT * (SystemCoreClock / 24U / 1000000U);
 8001c18:	00c0      	lsls	r0, r0, #3
 8001c1a:	9001      	str	r0, [sp, #4]
  if (hspi->Init.Mode == SPI_MODE_MASTER)
 8001c1c:	005b      	lsls	r3, r3, #1
 8001c1e:	429a      	cmp	r2, r3
 8001c20:	d100      	bne.n	8001c24 <HAL_SPI_TransmitReceive+0x144>
 8001c22:	e0d1      	b.n	8001dc8 <HAL_SPI_TransmitReceive+0x2e8>
    } while (__HAL_SPI_GET_FLAG(hspi, SPI_FLAG_BSY) != RESET);
 8001c24:	2280      	movs	r2, #128	; 0x80
 8001c26:	e006      	b.n	8001c36 <HAL_SPI_TransmitReceive+0x156>
      count--;
 8001c28:	9b01      	ldr	r3, [sp, #4]
 8001c2a:	3b01      	subs	r3, #1
 8001c2c:	9301      	str	r3, [sp, #4]
    } while (__HAL_SPI_GET_FLAG(hspi, SPI_FLAG_BSY) != RESET);
 8001c2e:	6823      	ldr	r3, [r4, #0]
 8001c30:	689b      	ldr	r3, [r3, #8]
 8001c32:	421a      	tst	r2, r3
 8001c34:	d002      	beq.n	8001c3c <HAL_SPI_TransmitReceive+0x15c>
      if (count == 0U)
 8001c36:	9b01      	ldr	r3, [sp, #4]
 8001c38:	2b00      	cmp	r3, #0
 8001c3a:	d1f5      	bne.n	8001c28 <HAL_SPI_TransmitReceive+0x148>
  if (hspi->Init.Direction == SPI_DIRECTION_2LINES)
 8001c3c:	68a3      	ldr	r3, [r4, #8]
 8001c3e:	2b00      	cmp	r3, #0
 8001c40:	d106      	bne.n	8001c50 <HAL_SPI_TransmitReceive+0x170>
    __HAL_SPI_CLEAR_OVRFLAG(hspi);
 8001c42:	9300      	str	r3, [sp, #0]
 8001c44:	6823      	ldr	r3, [r4, #0]
 8001c46:	68da      	ldr	r2, [r3, #12]
 8001c48:	9200      	str	r2, [sp, #0]
 8001c4a:	689b      	ldr	r3, [r3, #8]
 8001c4c:	9300      	str	r3, [sp, #0]
 8001c4e:	9b00      	ldr	r3, [sp, #0]
  HAL_StatusTypeDef    errorcode = HAL_OK;
 8001c50:	2000      	movs	r0, #0
 8001c52:	e762      	b.n	8001b1a <HAL_SPI_TransmitReceive+0x3a>
  __HAL_LOCK(hspi);
 8001c54:	2002      	movs	r0, #2
 8001c56:	e766      	b.n	8001b26 <HAL_SPI_TransmitReceive+0x46>
    errorcode = HAL_ERROR;
 8001c58:	2001      	movs	r0, #1
 8001c5a:	e75e      	b.n	8001b1a <HAL_SPI_TransmitReceive+0x3a>
      if ((__HAL_SPI_GET_FLAG(hspi, SPI_FLAG_TXE)) && (hspi->TxXferCount > 0U) && (txallowed == 1U))
 8001c5c:	2f01      	cmp	r7, #1
 8001c5e:	d10b      	bne.n	8001c78 <HAL_SPI_TransmitReceive+0x198>
        txallowed = 0U;
 8001c60:	2700      	movs	r7, #0
        *(__IO uint8_t *)&hspi->Instance->DR = (*hspi->pTxBuffPtr);
 8001c62:	6b22      	ldr	r2, [r4, #48]	; 0x30
 8001c64:	7812      	ldrb	r2, [r2, #0]
 8001c66:	731a      	strb	r2, [r3, #12]
        hspi->pTxBuffPtr++;
 8001c68:	6b23      	ldr	r3, [r4, #48]	; 0x30
 8001c6a:	3301      	adds	r3, #1
 8001c6c:	6323      	str	r3, [r4, #48]	; 0x30
        hspi->TxXferCount--;
 8001c6e:	8ee3      	ldrh	r3, [r4, #54]	; 0x36
 8001c70:	3b01      	subs	r3, #1
 8001c72:	b29b      	uxth	r3, r3
 8001c74:	86e3      	strh	r3, [r4, #54]	; 0x36
        txallowed = 0U;
 8001c76:	6823      	ldr	r3, [r4, #0]
      if ((__HAL_SPI_GET_FLAG(hspi, SPI_FLAG_RXNE)) && (hspi->RxXferCount > 0U))
 8001c78:	0029      	movs	r1, r5
 8001c7a:	689a      	ldr	r2, [r3, #8]
 8001c7c:	4011      	ands	r1, r2
 8001c7e:	4215      	tst	r5, r2
 8001c80:	d00d      	beq.n	8001c9e <HAL_SPI_TransmitReceive+0x1be>
 8001c82:	8fe2      	ldrh	r2, [r4, #62]	; 0x3e
 8001c84:	2a00      	cmp	r2, #0
 8001c86:	d00a      	beq.n	8001c9e <HAL_SPI_TransmitReceive+0x1be>
        txallowed = 1U;
 8001c88:	000f      	movs	r7, r1
        (*(uint8_t *)hspi->pRxBuffPtr) = hspi->Instance->DR;
 8001c8a:	68db      	ldr	r3, [r3, #12]
 8001c8c:	6ba2      	ldr	r2, [r4, #56]	; 0x38
 8001c8e:	7013      	strb	r3, [r2, #0]
        hspi->pRxBuffPtr++;
 8001c90:	6ba3      	ldr	r3, [r4, #56]	; 0x38
 8001c92:	3301      	adds	r3, #1
 8001c94:	63a3      	str	r3, [r4, #56]	; 0x38
        hspi->RxXferCount--;
 8001c96:	8fe3      	ldrh	r3, [r4, #62]	; 0x3e
 8001c98:	3b01      	subs	r3, #1
 8001c9a:	b29b      	uxth	r3, r3
 8001c9c:	87e3      	strh	r3, [r4, #62]	; 0x3e
      if ((((HAL_GetTick() - tickstart) >=  Timeout) && ((Timeout != HAL_MAX_DELAY))) || (Timeout == 0U))
 8001c9e:	f7fe fecb 	bl	8000a38 <HAL_GetTick>
 8001ca2:	4643      	mov	r3, r8
 8001ca4:	1ac0      	subs	r0, r0, r3
 8001ca6:	9b08      	ldr	r3, [sp, #32]
 8001ca8:	4298      	cmp	r0, r3
 8001caa:	d23f      	bcs.n	8001d2c <HAL_SPI_TransmitReceive+0x24c>
    while ((hspi->TxXferCount > 0U) || (hspi->RxXferCount > 0U))
 8001cac:	8ee3      	ldrh	r3, [r4, #54]	; 0x36
 8001cae:	2b00      	cmp	r3, #0
 8001cb0:	d102      	bne.n	8001cb8 <HAL_SPI_TransmitReceive+0x1d8>
 8001cb2:	8fe3      	ldrh	r3, [r4, #62]	; 0x3e
 8001cb4:	2b00      	cmp	r3, #0
 8001cb6:	d0a3      	beq.n	8001c00 <HAL_SPI_TransmitReceive+0x120>
      if ((__HAL_SPI_GET_FLAG(hspi, SPI_FLAG_TXE)) && (hspi->TxXferCount > 0U) && (txallowed == 1U))
 8001cb8:	6823      	ldr	r3, [r4, #0]
 8001cba:	689a      	ldr	r2, [r3, #8]
 8001cbc:	4216      	tst	r6, r2
 8001cbe:	d0db      	beq.n	8001c78 <HAL_SPI_TransmitReceive+0x198>
 8001cc0:	8ee2      	ldrh	r2, [r4, #54]	; 0x36
 8001cc2:	2a00      	cmp	r2, #0
 8001cc4:	d0d8      	beq.n	8001c78 <HAL_SPI_TransmitReceive+0x198>
 8001cc6:	e7c9      	b.n	8001c5c <HAL_SPI_TransmitReceive+0x17c>
    while ((hspi->TxXferCount > 0U) || (hspi->RxXferCount > 0U))
 8001cc8:	8ee3      	ldrh	r3, [r4, #54]	; 0x36
 8001cca:	2b00      	cmp	r3, #0
 8001ccc:	d102      	bne.n	8001cd4 <HAL_SPI_TransmitReceive+0x1f4>
 8001cce:	8fe3      	ldrh	r3, [r4, #62]	; 0x3e
 8001cd0:	2b00      	cmp	r3, #0
 8001cd2:	d095      	beq.n	8001c00 <HAL_SPI_TransmitReceive+0x120>
      if ((__HAL_SPI_GET_FLAG(hspi, SPI_FLAG_TXE)) && (hspi->TxXferCount > 0U) && (txallowed == 1U))
 8001cd4:	6823      	ldr	r3, [r4, #0]
 8001cd6:	689a      	ldr	r2, [r3, #8]
 8001cd8:	4216      	tst	r6, r2
 8001cda:	d00e      	beq.n	8001cfa <HAL_SPI_TransmitReceive+0x21a>
 8001cdc:	8ee2      	ldrh	r2, [r4, #54]	; 0x36
 8001cde:	2a00      	cmp	r2, #0
 8001ce0:	d00b      	beq.n	8001cfa <HAL_SPI_TransmitReceive+0x21a>
 8001ce2:	2f01      	cmp	r7, #1
 8001ce4:	d109      	bne.n	8001cfa <HAL_SPI_TransmitReceive+0x21a>
        txallowed = 0U;
 8001ce6:	2700      	movs	r7, #0
        hspi->Instance->DR = *((uint16_t *)hspi->pTxBuffPtr);
 8001ce8:	6b22      	ldr	r2, [r4, #48]	; 0x30
 8001cea:	8811      	ldrh	r1, [r2, #0]
        hspi->pTxBuffPtr += sizeof(uint16_t);
 8001cec:	3202      	adds	r2, #2
        hspi->Instance->DR = *((uint16_t *)hspi->pTxBuffPtr);
 8001cee:	60d9      	str	r1, [r3, #12]
        hspi->pTxBuffPtr += sizeof(uint16_t);
 8001cf0:	6322      	str	r2, [r4, #48]	; 0x30
        hspi->TxXferCount--;
 8001cf2:	8ee2      	ldrh	r2, [r4, #54]	; 0x36
 8001cf4:	3a01      	subs	r2, #1
 8001cf6:	b292      	uxth	r2, r2
 8001cf8:	86e2      	strh	r2, [r4, #54]	; 0x36
      if ((__HAL_SPI_GET_FLAG(hspi, SPI_FLAG_RXNE)) && (hspi->RxXferCount > 0U))
 8001cfa:	0029      	movs	r1, r5
 8001cfc:	689a      	ldr	r2, [r3, #8]
 8001cfe:	4011      	ands	r1, r2
 8001d00:	4215      	tst	r5, r2
 8001d02:	d00c      	beq.n	8001d1e <HAL_SPI_TransmitReceive+0x23e>
 8001d04:	8fe2      	ldrh	r2, [r4, #62]	; 0x3e
 8001d06:	2a00      	cmp	r2, #0
 8001d08:	d009      	beq.n	8001d1e <HAL_SPI_TransmitReceive+0x23e>
        txallowed = 1U;
 8001d0a:	000f      	movs	r7, r1
        *((uint16_t *)hspi->pRxBuffPtr) = (uint16_t)hspi->Instance->DR;
 8001d0c:	68da      	ldr	r2, [r3, #12]
 8001d0e:	6ba3      	ldr	r3, [r4, #56]	; 0x38
 8001d10:	801a      	strh	r2, [r3, #0]
        hspi->pRxBuffPtr += sizeof(uint16_t);
 8001d12:	3302      	adds	r3, #2
 8001d14:	63a3      	str	r3, [r4, #56]	; 0x38
        hspi->RxXferCount--;
 8001d16:	8fe3      	ldrh	r3, [r4, #62]	; 0x3e
 8001d18:	3b01      	subs	r3, #1
 8001d1a:	b29b      	uxth	r3, r3
 8001d1c:	87e3      	strh	r3, [r4, #62]	; 0x3e
      if (((HAL_GetTick() - tickstart) >=  Timeout) && (Timeout != HAL_MAX_DELAY))
 8001d1e:	f7fe fe8b 	bl	8000a38 <HAL_GetTick>
 8001d22:	4643      	mov	r3, r8
 8001d24:	1ac0      	subs	r0, r0, r3
 8001d26:	9b08      	ldr	r3, [sp, #32]
 8001d28:	4298      	cmp	r0, r3
 8001d2a:	d3cd      	bcc.n	8001cc8 <HAL_SPI_TransmitReceive+0x1e8>
        errorcode = HAL_TIMEOUT;
 8001d2c:	2003      	movs	r0, #3
 8001d2e:	e6f4      	b.n	8001b1a <HAL_SPI_TransmitReceive+0x3a>
      *((__IO uint8_t *)&hspi->Instance->DR) = (*hspi->pTxBuffPtr);
 8001d30:	7832      	ldrb	r2, [r6, #0]
 8001d32:	731a      	strb	r2, [r3, #12]
      hspi->pTxBuffPtr += sizeof(uint8_t);
 8001d34:	6b23      	ldr	r3, [r4, #48]	; 0x30
 8001d36:	3301      	adds	r3, #1
 8001d38:	6323      	str	r3, [r4, #48]	; 0x30
      hspi->TxXferCount--;
 8001d3a:	8ee3      	ldrh	r3, [r4, #54]	; 0x36
 8001d3c:	3b01      	subs	r3, #1
 8001d3e:	b29b      	uxth	r3, r3
 8001d40:	86e3      	strh	r3, [r4, #54]	; 0x36
 8001d42:	e726      	b.n	8001b92 <HAL_SPI_TransmitReceive+0xb2>
    if ((hspi->Init.Mode == SPI_MODE_SLAVE) || (initial_TxXferCount == 0x01U))
 8001d44:	2a00      	cmp	r2, #0
 8001d46:	d13c      	bne.n	8001dc2 <HAL_SPI_TransmitReceive+0x2e2>
      hspi->Instance->DR = *((uint16_t *)hspi->pTxBuffPtr);
 8001d48:	8832      	ldrh	r2, [r6, #0]
      hspi->pTxBuffPtr += sizeof(uint16_t);
 8001d4a:	3602      	adds	r6, #2
      hspi->Instance->DR = *((uint16_t *)hspi->pTxBuffPtr);
 8001d4c:	60da      	str	r2, [r3, #12]
      hspi->TxXferCount--;
 8001d4e:	8ee3      	ldrh	r3, [r4, #54]	; 0x36
      hspi->pTxBuffPtr += sizeof(uint16_t);
 8001d50:	6326      	str	r6, [r4, #48]	; 0x30
      hspi->TxXferCount--;
 8001d52:	3b01      	subs	r3, #1
 8001d54:	b29b      	uxth	r3, r3
 8001d56:	86e3      	strh	r3, [r4, #54]	; 0x36
 8001d58:	9b08      	ldr	r3, [sp, #32]
{
 8001d5a:	2701      	movs	r7, #1
      if ((__HAL_SPI_GET_FLAG(hspi, SPI_FLAG_TXE)) && (hspi->TxXferCount > 0U) && (txallowed == 1U))
 8001d5c:	2602      	movs	r6, #2
      if ((__HAL_SPI_GET_FLAG(hspi, SPI_FLAG_RXNE)) && (hspi->RxXferCount > 0U))
 8001d5e:	2501      	movs	r5, #1
 8001d60:	3301      	adds	r3, #1
 8001d62:	d027      	beq.n	8001db4 <HAL_SPI_TransmitReceive+0x2d4>
 8001d64:	e7b0      	b.n	8001cc8 <HAL_SPI_TransmitReceive+0x1e8>
      if ((__HAL_SPI_GET_FLAG(hspi, SPI_FLAG_TXE)) && (hspi->TxXferCount > 0U) && (txallowed == 1U))
 8001d66:	6823      	ldr	r3, [r4, #0]
 8001d68:	689a      	ldr	r2, [r3, #8]
 8001d6a:	4216      	tst	r6, r2
 8001d6c:	d00e      	beq.n	8001d8c <HAL_SPI_TransmitReceive+0x2ac>
 8001d6e:	8ee2      	ldrh	r2, [r4, #54]	; 0x36
 8001d70:	2a00      	cmp	r2, #0
 8001d72:	d00b      	beq.n	8001d8c <HAL_SPI_TransmitReceive+0x2ac>
 8001d74:	2f01      	cmp	r7, #1
 8001d76:	d109      	bne.n	8001d8c <HAL_SPI_TransmitReceive+0x2ac>
        txallowed = 0U;
 8001d78:	2700      	movs	r7, #0
        hspi->Instance->DR = *((uint16_t *)hspi->pTxBuffPtr);
 8001d7a:	6b22      	ldr	r2, [r4, #48]	; 0x30
 8001d7c:	8811      	ldrh	r1, [r2, #0]
        hspi->pTxBuffPtr += sizeof(uint16_t);
 8001d7e:	3202      	adds	r2, #2
        hspi->Instance->DR = *((uint16_t *)hspi->pTxBuffPtr);
 8001d80:	60d9      	str	r1, [r3, #12]
        hspi->pTxBuffPtr += sizeof(uint16_t);
 8001d82:	6322      	str	r2, [r4, #48]	; 0x30
        hspi->TxXferCount--;
 8001d84:	8ee2      	ldrh	r2, [r4, #54]	; 0x36
 8001d86:	3a01      	subs	r2, #1
 8001d88:	b292      	uxth	r2, r2
 8001d8a:	86e2      	strh	r2, [r4, #54]	; 0x36
      if ((__HAL_SPI_GET_FLAG(hspi, SPI_FLAG_RXNE)) && (hspi->RxXferCount > 0U))
 8001d8c:	0029      	movs	r1, r5
 8001d8e:	689a      	ldr	r2, [r3, #8]
 8001d90:	4011      	ands	r1, r2
 8001d92:	4215      	tst	r5, r2
 8001d94:	d00c      	beq.n	8001db0 <HAL_SPI_TransmitReceive+0x2d0>
 8001d96:	8fe2      	ldrh	r2, [r4, #62]	; 0x3e
 8001d98:	2a00      	cmp	r2, #0
 8001d9a:	d009      	beq.n	8001db0 <HAL_SPI_TransmitReceive+0x2d0>
        txallowed = 1U;
 8001d9c:	000f      	movs	r7, r1
        *((uint16_t *)hspi->pRxBuffPtr) = (uint16_t)hspi->Instance->DR;
 8001d9e:	68da      	ldr	r2, [r3, #12]
 8001da0:	6ba3      	ldr	r3, [r4, #56]	; 0x38
 8001da2:	801a      	strh	r2, [r3, #0]
        hspi->pRxBuffPtr += sizeof(uint16_t);
 8001da4:	3302      	adds	r3, #2
 8001da6:	63a3      	str	r3, [r4, #56]	; 0x38
        hspi->RxXferCount--;
 8001da8:	8fe3      	ldrh	r3, [r4, #62]	; 0x3e
 8001daa:	3b01      	subs	r3, #1
 8001dac:	b29b      	uxth	r3, r3
 8001dae:	87e3      	strh	r3, [r4, #62]	; 0x3e
      if (((HAL_GetTick() - tickstart) >=  Timeout) && (Timeout != HAL_MAX_DELAY))
 8001db0:	f7fe fe42 	bl	8000a38 <HAL_GetTick>
    while ((hspi->TxXferCount > 0U) || (hspi->RxXferCount > 0U))
 8001db4:	8ee3      	ldrh	r3, [r4, #54]	; 0x36
 8001db6:	2b00      	cmp	r3, #0
 8001db8:	d1d5      	bne.n	8001d66 <HAL_SPI_TransmitReceive+0x286>
 8001dba:	8fe3      	ldrh	r3, [r4, #62]	; 0x3e
 8001dbc:	2b00      	cmp	r3, #0
 8001dbe:	d1d2      	bne.n	8001d66 <HAL_SPI_TransmitReceive+0x286>
 8001dc0:	e71e      	b.n	8001c00 <HAL_SPI_TransmitReceive+0x120>
    if ((hspi->Init.Mode == SPI_MODE_SLAVE) || (initial_TxXferCount == 0x01U))
 8001dc2:	2d01      	cmp	r5, #1
 8001dc4:	d1c8      	bne.n	8001d58 <HAL_SPI_TransmitReceive+0x278>
 8001dc6:	e7bf      	b.n	8001d48 <HAL_SPI_TransmitReceive+0x268>
    if (SPI_WaitFlagStateUntilTimeout(hspi, SPI_FLAG_BSY, RESET, Timeout, Tickstart) != HAL_OK)
 8001dc8:	4643      	mov	r3, r8
 8001dca:	2180      	movs	r1, #128	; 0x80
 8001dcc:	0020      	movs	r0, r4
 8001dce:	9a08      	ldr	r2, [sp, #32]
 8001dd0:	f7ff fc84 	bl	80016dc <SPI_WaitFlagStateUntilTimeout.constprop.0>
 8001dd4:	2800      	cmp	r0, #0
 8001dd6:	d100      	bne.n	8001dda <HAL_SPI_TransmitReceive+0x2fa>
 8001dd8:	e730      	b.n	8001c3c <HAL_SPI_TransmitReceive+0x15c>
      SET_BIT(hspi->ErrorCode, HAL_SPI_ERROR_FLAG);
 8001dda:	2220      	movs	r2, #32
 8001ddc:	6d63      	ldr	r3, [r4, #84]	; 0x54
    errorcode = HAL_ERROR;
 8001dde:	2001      	movs	r0, #1
      SET_BIT(hspi->ErrorCode, HAL_SPI_ERROR_FLAG);
 8001de0:	4313      	orrs	r3, r2
 8001de2:	6563      	str	r3, [r4, #84]	; 0x54
    hspi->ErrorCode = HAL_SPI_ERROR_FLAG;
 8001de4:	6562      	str	r2, [r4, #84]	; 0x54
    goto error;
 8001de6:	e698      	b.n	8001b1a <HAL_SPI_TransmitReceive+0x3a>
 8001de8:	20000000 	.word	0x20000000
 8001dec:	016e3600 	.word	0x016e3600

08001df0 <HAL_TIM_Base_Init>:
  *         Ex: call @ref HAL_TIM_Base_DeInit() before HAL_TIM_Base_Init()
  * @param  htim TIM Base handle
  * @retval HAL status
  */
HAL_StatusTypeDef HAL_TIM_Base_Init(TIM_HandleTypeDef *htim)
{
 8001df0:	b510      	push	{r4, lr}
 8001df2:	1e04      	subs	r4, r0, #0
  /* Check the TIM handle allocation */
  if (htim == NULL)
 8001df4:	d039      	beq.n	8001e6a <HAL_TIM_Base_Init+0x7a>
  assert_param(IS_TIM_CLOCKDIVISION_DIV(htim->Init.ClockDivision));
  assert_param(IS_TIM_PERIOD(htim->Init.Period));
  assert_param(IS_TIM_PRESCALER(htim->Init.Prescaler));
  assert_param(IS_TIM_AUTORELOAD_PRELOAD(htim->Init.AutoReloadPreload));

  if (htim->State == HAL_TIM_STATE_RESET)
 8001df6:	2339      	movs	r3, #57	; 0x39
 8001df8:	5cc3      	ldrb	r3, [r0, r3]
 8001dfa:	b2da      	uxtb	r2, r3
 8001dfc:	2b00      	cmp	r3, #0
 8001dfe:	d02f      	beq.n	8001e60 <HAL_TIM_Base_Init+0x70>
    HAL_TIM_Base_MspInit(htim);
#endif /* USE_HAL_TIM_REGISTER_CALLBACKS */
  }

  /* Set the TIM state */
  htim->State = HAL_TIM_STATE_BUSY;
 8001e00:	2339      	movs	r3, #57	; 0x39
 8001e02:	2202      	movs	r2, #2
{
  uint32_t tmpcr1;
  tmpcr1 = TIMx->CR1;

  /* Set TIM Time Base Unit parameters ---------------------------------------*/
  if (IS_TIM_COUNTER_MODE_SELECT_INSTANCE(TIMx))
 8001e04:	2180      	movs	r1, #128	; 0x80
  htim->State = HAL_TIM_STATE_BUSY;
 8001e06:	54e2      	strb	r2, [r4, r3]
  TIM_Base_SetConfig(htim->Instance, &htim->Init);
 8001e08:	6822      	ldr	r2, [r4, #0]
  if (IS_TIM_COUNTER_MODE_SELECT_INSTANCE(TIMx))
 8001e0a:	05c9      	lsls	r1, r1, #23
  tmpcr1 = TIMx->CR1;
 8001e0c:	6813      	ldr	r3, [r2, #0]
  if (IS_TIM_COUNTER_MODE_SELECT_INSTANCE(TIMx))
 8001e0e:	428a      	cmp	r2, r1
 8001e10:	d005      	beq.n	8001e1e <HAL_TIM_Base_Init+0x2e>
 8001e12:	4917      	ldr	r1, [pc, #92]	; (8001e70 <HAL_TIM_Base_Init+0x80>)
 8001e14:	428a      	cmp	r2, r1
 8001e16:	d002      	beq.n	8001e1e <HAL_TIM_Base_Init+0x2e>
 8001e18:	4916      	ldr	r1, [pc, #88]	; (8001e74 <HAL_TIM_Base_Init+0x84>)
 8001e1a:	428a      	cmp	r2, r1
 8001e1c:	d107      	bne.n	8001e2e <HAL_TIM_Base_Init+0x3e>
  {
    /* Select the Counter Mode */
    tmpcr1 &= ~(TIM_CR1_DIR | TIM_CR1_CMS);
 8001e1e:	2170      	movs	r1, #112	; 0x70
 8001e20:	438b      	bics	r3, r1
    tmpcr1 |= Structure->CounterMode;
 8001e22:	68a1      	ldr	r1, [r4, #8]
 8001e24:	430b      	orrs	r3, r1
  }

  if (IS_TIM_CLOCK_DIVISION_INSTANCE(TIMx))
  {
    /* Set the clock division */
    tmpcr1 &= ~TIM_CR1_CKD;
 8001e26:	4914      	ldr	r1, [pc, #80]	; (8001e78 <HAL_TIM_Base_Init+0x88>)
 8001e28:	400b      	ands	r3, r1
    tmpcr1 |= (uint32_t)Structure->ClockDivision;
 8001e2a:	6921      	ldr	r1, [r4, #16]
 8001e2c:	430b      	orrs	r3, r1
  }

  /* Set the auto-reload preload */
  MODIFY_REG(tmpcr1, TIM_CR1_ARPE, Structure->AutoReloadPreload);
 8001e2e:	2180      	movs	r1, #128	; 0x80
 8001e30:	438b      	bics	r3, r1
 8001e32:	6961      	ldr	r1, [r4, #20]
  return HAL_OK;
 8001e34:	2000      	movs	r0, #0
  MODIFY_REG(tmpcr1, TIM_CR1_ARPE, Structure->AutoReloadPreload);
 8001e36:	430b      	orrs	r3, r1

  TIMx->CR1 = tmpcr1;
 8001e38:	6013      	str	r3, [r2, #0]

  /* Set the Autoreload value */
  TIMx->ARR = (uint32_t)Structure->Period ;
 8001e3a:	68e3      	ldr	r3, [r4, #12]
 8001e3c:	62d3      	str	r3, [r2, #44]	; 0x2c

  /* Set the Prescaler value */
  TIMx->PSC = Structure->Prescaler;
 8001e3e:	6863      	ldr	r3, [r4, #4]
 8001e40:	6293      	str	r3, [r2, #40]	; 0x28

  /* Generate an update event to reload the Prescaler
     and the repetition counter (only for advanced timer) value immediately */
  TIMx->EGR = TIM_EGR_UG;
 8001e42:	2301      	movs	r3, #1
 8001e44:	6153      	str	r3, [r2, #20]
  htim->DMABurstState = HAL_DMA_BURST_STATE_READY;
 8001e46:	223e      	movs	r2, #62	; 0x3e
 8001e48:	54a3      	strb	r3, [r4, r2]
  TIM_CHANNEL_STATE_SET_ALL(htim, HAL_TIM_CHANNEL_STATE_READY);
 8001e4a:	3a04      	subs	r2, #4
 8001e4c:	54a3      	strb	r3, [r4, r2]
 8001e4e:	3201      	adds	r2, #1
 8001e50:	54a3      	strb	r3, [r4, r2]
 8001e52:	3201      	adds	r2, #1
 8001e54:	54a3      	strb	r3, [r4, r2]
 8001e56:	3201      	adds	r2, #1
 8001e58:	54a3      	strb	r3, [r4, r2]
  htim->State = HAL_TIM_STATE_READY;
 8001e5a:	3a04      	subs	r2, #4
 8001e5c:	54a3      	strb	r3, [r4, r2]
}
 8001e5e:	bd10      	pop	{r4, pc}
    htim->Lock = HAL_UNLOCKED;
 8001e60:	3338      	adds	r3, #56	; 0x38
 8001e62:	54c2      	strb	r2, [r0, r3]
    HAL_TIM_Base_MspInit(htim);
 8001e64:	f7fe fd40 	bl	80008e8 <HAL_TIM_Base_MspInit>
 8001e68:	e7ca      	b.n	8001e00 <HAL_TIM_Base_Init+0x10>
    return HAL_ERROR;
 8001e6a:	2001      	movs	r0, #1
 8001e6c:	e7f7      	b.n	8001e5e <HAL_TIM_Base_Init+0x6e>
 8001e6e:	46c0      	nop			; (mov r8, r8)
 8001e70:	40010800 	.word	0x40010800
 8001e74:	40011400 	.word	0x40011400
 8001e78:	fffffcff 	.word	0xfffffcff

08001e7c <HAL_TIM_Base_Start_IT>:
  if (htim->State != HAL_TIM_STATE_READY)
 8001e7c:	2239      	movs	r2, #57	; 0x39
 8001e7e:	5c81      	ldrb	r1, [r0, r2]
{
 8001e80:	0003      	movs	r3, r0
    return HAL_ERROR;
 8001e82:	2001      	movs	r0, #1
  if (htim->State != HAL_TIM_STATE_READY)
 8001e84:	2901      	cmp	r1, #1
 8001e86:	d113      	bne.n	8001eb0 <HAL_TIM_Base_Start_IT+0x34>
  htim->State = HAL_TIM_STATE_BUSY;
 8001e88:	3101      	adds	r1, #1
 8001e8a:	5499      	strb	r1, [r3, r2]
  __HAL_TIM_ENABLE_IT(htim, TIM_IT_UPDATE);
 8001e8c:	681b      	ldr	r3, [r3, #0]
 8001e8e:	68da      	ldr	r2, [r3, #12]
 8001e90:	4302      	orrs	r2, r0
 8001e92:	60da      	str	r2, [r3, #12]
  if (IS_TIM_SLAVE_INSTANCE(htim->Instance))
 8001e94:	2280      	movs	r2, #128	; 0x80
 8001e96:	05d2      	lsls	r2, r2, #23
 8001e98:	4293      	cmp	r3, r2
 8001e9a:	d00a      	beq.n	8001eb2 <HAL_TIM_Base_Start_IT+0x36>
 8001e9c:	4a0b      	ldr	r2, [pc, #44]	; (8001ecc <HAL_TIM_Base_Start_IT+0x50>)
 8001e9e:	4293      	cmp	r3, r2
 8001ea0:	d007      	beq.n	8001eb2 <HAL_TIM_Base_Start_IT+0x36>
 8001ea2:	4a0b      	ldr	r2, [pc, #44]	; (8001ed0 <HAL_TIM_Base_Start_IT+0x54>)
 8001ea4:	4293      	cmp	r3, r2
 8001ea6:	d004      	beq.n	8001eb2 <HAL_TIM_Base_Start_IT+0x36>
    __HAL_TIM_ENABLE(htim);
 8001ea8:	681a      	ldr	r2, [r3, #0]
 8001eaa:	4310      	orrs	r0, r2
 8001eac:	6018      	str	r0, [r3, #0]
  return HAL_OK;
 8001eae:	2000      	movs	r0, #0
}
 8001eb0:	4770      	bx	lr
    tmpsmcr = htim->Instance->SMCR & TIM_SMCR_SMS;
 8001eb2:	2207      	movs	r2, #7
 8001eb4:	6899      	ldr	r1, [r3, #8]
 8001eb6:	400a      	ands	r2, r1
    if (!IS_TIM_SLAVEMODE_TRIGGER_ENABLED(tmpsmcr))
 8001eb8:	2a06      	cmp	r2, #6
 8001eba:	d005      	beq.n	8001ec8 <HAL_TIM_Base_Start_IT+0x4c>
      __HAL_TIM_ENABLE(htim);
 8001ebc:	2101      	movs	r1, #1
 8001ebe:	681a      	ldr	r2, [r3, #0]
  return HAL_OK;
 8001ec0:	2000      	movs	r0, #0
      __HAL_TIM_ENABLE(htim);
 8001ec2:	430a      	orrs	r2, r1
 8001ec4:	601a      	str	r2, [r3, #0]
 8001ec6:	e7f3      	b.n	8001eb0 <HAL_TIM_Base_Start_IT+0x34>
  return HAL_OK;
 8001ec8:	2000      	movs	r0, #0
 8001eca:	e7f1      	b.n	8001eb0 <HAL_TIM_Base_Start_IT+0x34>
 8001ecc:	40010800 	.word	0x40010800
 8001ed0:	40011400 	.word	0x40011400

08001ed4 <HAL_TIM_ConfigClockSource>:
  __HAL_LOCK(htim);
 8001ed4:	2338      	movs	r3, #56	; 0x38
{
 8001ed6:	b570      	push	{r4, r5, r6, lr}
  __HAL_LOCK(htim);
 8001ed8:	5cc2      	ldrb	r2, [r0, r3]
 8001eda:	2a01      	cmp	r2, #1
 8001edc:	d100      	bne.n	8001ee0 <HAL_TIM_ConfigClockSource+0xc>
 8001ede:	e070      	b.n	8001fc2 <HAL_TIM_ConfigClockSource+0xee>
 8001ee0:	2401      	movs	r4, #1
  htim->State = HAL_TIM_STATE_BUSY;
 8001ee2:	2202      	movs	r2, #2
  __HAL_LOCK(htim);
 8001ee4:	54c4      	strb	r4, [r0, r3]
  htim->State = HAL_TIM_STATE_BUSY;
 8001ee6:	3301      	adds	r3, #1
 8001ee8:	54c2      	strb	r2, [r0, r3]
  tmpsmcr = htim->Instance->SMCR;
 8001eea:	6802      	ldr	r2, [r0, #0]
  tmpsmcr &= ~(TIM_SMCR_ETF | TIM_SMCR_ETPS | TIM_SMCR_ECE | TIM_SMCR_ETP);
 8001eec:	4d4a      	ldr	r5, [pc, #296]	; (8002018 <HAL_TIM_ConfigClockSource+0x144>)
  tmpsmcr = htim->Instance->SMCR;
 8001eee:	6893      	ldr	r3, [r2, #8]
  tmpsmcr &= ~(TIM_SMCR_ETF | TIM_SMCR_ETPS | TIM_SMCR_ECE | TIM_SMCR_ETP);
 8001ef0:	402b      	ands	r3, r5
  htim->Instance->SMCR = tmpsmcr;
 8001ef2:	6093      	str	r3, [r2, #8]
  switch (sClockSourceConfig->ClockSource)
 8001ef4:	680b      	ldr	r3, [r1, #0]
 8001ef6:	2b60      	cmp	r3, #96	; 0x60
 8001ef8:	d065      	beq.n	8001fc6 <HAL_TIM_ConfigClockSource+0xf2>
 8001efa:	d82f      	bhi.n	8001f5c <HAL_TIM_ConfigClockSource+0x88>
 8001efc:	2b40      	cmp	r3, #64	; 0x40
 8001efe:	d049      	beq.n	8001f94 <HAL_TIM_ConfigClockSource+0xc0>
 8001f00:	d91f      	bls.n	8001f42 <HAL_TIM_ConfigClockSource+0x6e>
 8001f02:	2b50      	cmp	r3, #80	; 0x50
 8001f04:	d115      	bne.n	8001f32 <HAL_TIM_ConfigClockSource+0x5e>
      TIM_TI1_ConfigInputStage(htim->Instance,
 8001f06:	684d      	ldr	r5, [r1, #4]
 8001f08:	68cb      	ldr	r3, [r1, #12]
{
  uint32_t tmpccmr1;
  uint32_t tmpccer;

  /* Disable the Channel 1: Reset the CC1E Bit */
  tmpccer = TIMx->CCER;
 8001f0a:	6a11      	ldr	r1, [r2, #32]
  TIMx->CCER &= ~TIM_CCER_CC1E;
 8001f0c:	6a16      	ldr	r6, [r2, #32]
  tmpccmr1 = TIMx->CCMR1;

  /* Set the filter */
  tmpccmr1 &= ~TIM_CCMR1_IC1F;
  tmpccmr1 |= (TIM_ICFilter << 4U);
 8001f0e:	011b      	lsls	r3, r3, #4
  TIMx->CCER &= ~TIM_CCER_CC1E;
 8001f10:	43a6      	bics	r6, r4
 8001f12:	6216      	str	r6, [r2, #32]
  tmpccmr1 &= ~TIM_CCMR1_IC1F;
 8001f14:	26f0      	movs	r6, #240	; 0xf0
  tmpccmr1 = TIMx->CCMR1;
 8001f16:	6994      	ldr	r4, [r2, #24]
  tmpccmr1 &= ~TIM_CCMR1_IC1F;
 8001f18:	43b4      	bics	r4, r6
  tmpccmr1 |= (TIM_ICFilter << 4U);
 8001f1a:	4323      	orrs	r3, r4

  /* Select the Polarity and set the CC1E Bit */
  tmpccer &= ~(TIM_CCER_CC1P | TIM_CCER_CC1NP);
 8001f1c:	240a      	movs	r4, #10
 8001f1e:	43a1      	bics	r1, r4
  tmpccer |= TIM_ICPolarity;
 8001f20:	4329      	orrs	r1, r5

  /* Write to TIMx CCMR1 and CCER registers */
  TIMx->CCMR1 = tmpccmr1;
 8001f22:	6193      	str	r3, [r2, #24]
  TIMx->CCER = tmpccer;
 8001f24:	6211      	str	r1, [r2, #32]
  uint32_t tmpsmcr;

  /* Get the TIMx SMCR register value */
  tmpsmcr = TIMx->SMCR;
  /* Reset the TS Bits */
  tmpsmcr &= ~TIM_SMCR_TS;
 8001f26:	2170      	movs	r1, #112	; 0x70
  tmpsmcr = TIMx->SMCR;
 8001f28:	6893      	ldr	r3, [r2, #8]
  tmpsmcr &= ~TIM_SMCR_TS;
 8001f2a:	438b      	bics	r3, r1
  /* Set the Input Trigger source and the slave mode*/
  tmpsmcr |= (InputTriggerSource | TIM_SLAVEMODE_EXTERNAL1);
 8001f2c:	3919      	subs	r1, #25
 8001f2e:	430b      	orrs	r3, r1
  /* Write to TIMx SMCR */
  TIMx->SMCR = tmpsmcr;
 8001f30:	6093      	str	r3, [r2, #8]
  htim->State = HAL_TIM_STATE_READY;
 8001f32:	2339      	movs	r3, #57	; 0x39
 8001f34:	2201      	movs	r2, #1
 8001f36:	54c2      	strb	r2, [r0, r3]
  __HAL_UNLOCK(htim);
 8001f38:	2200      	movs	r2, #0
 8001f3a:	3b01      	subs	r3, #1
 8001f3c:	54c2      	strb	r2, [r0, r3]
  return HAL_OK;
 8001f3e:	2000      	movs	r0, #0
}
 8001f40:	bd70      	pop	{r4, r5, r6, pc}
  switch (sClockSourceConfig->ClockSource)
 8001f42:	2b20      	cmp	r3, #32
 8001f44:	d002      	beq.n	8001f4c <HAL_TIM_ConfigClockSource+0x78>
 8001f46:	d920      	bls.n	8001f8a <HAL_TIM_ConfigClockSource+0xb6>
 8001f48:	2b30      	cmp	r3, #48	; 0x30
 8001f4a:	d1f2      	bne.n	8001f32 <HAL_TIM_ConfigClockSource+0x5e>
  tmpsmcr &= ~TIM_SMCR_TS;
 8001f4c:	2470      	movs	r4, #112	; 0x70
  tmpsmcr = TIMx->SMCR;
 8001f4e:	6891      	ldr	r1, [r2, #8]
  tmpsmcr &= ~TIM_SMCR_TS;
 8001f50:	43a1      	bics	r1, r4
  tmpsmcr |= (InputTriggerSource | TIM_SLAVEMODE_EXTERNAL1);
 8001f52:	430b      	orrs	r3, r1
 8001f54:	2107      	movs	r1, #7
 8001f56:	430b      	orrs	r3, r1
  TIMx->SMCR = tmpsmcr;
 8001f58:	6093      	str	r3, [r2, #8]
}
 8001f5a:	e7ea      	b.n	8001f32 <HAL_TIM_ConfigClockSource+0x5e>
  switch (sClockSourceConfig->ClockSource)
 8001f5c:	2b70      	cmp	r3, #112	; 0x70
 8001f5e:	d04b      	beq.n	8001ff8 <HAL_TIM_ConfigClockSource+0x124>
 8001f60:	2480      	movs	r4, #128	; 0x80
 8001f62:	01a4      	lsls	r4, r4, #6
 8001f64:	42a3      	cmp	r3, r4
 8001f66:	d1e4      	bne.n	8001f32 <HAL_TIM_ConfigClockSource+0x5e>
static void TIM_ETR_SetConfig(TIM_TypeDef *TIMx, uint32_t TIM_ExtTRGPrescaler,
                              uint32_t TIM_ExtTRGPolarity, uint32_t ExtTRGFilter)
{
  uint32_t tmpsmcr;

  tmpsmcr = TIMx->SMCR;
 8001f68:	6893      	ldr	r3, [r2, #8]

  /* Reset the ETR Bits */
  tmpsmcr &= ~(TIM_SMCR_ETF | TIM_SMCR_ETPS | TIM_SMCR_ECE | TIM_SMCR_ETP);
 8001f6a:	4c2c      	ldr	r4, [pc, #176]	; (800201c <HAL_TIM_ConfigClockSource+0x148>)

  /* Set the Prescaler, the Filter value and the Polarity */
  tmpsmcr |= (uint32_t)(TIM_ExtTRGPrescaler | (TIM_ExtTRGPolarity | (ExtTRGFilter << 8U)));
 8001f6c:	684d      	ldr	r5, [r1, #4]
  tmpsmcr &= ~(TIM_SMCR_ETF | TIM_SMCR_ETPS | TIM_SMCR_ECE | TIM_SMCR_ETP);
 8001f6e:	401c      	ands	r4, r3
  tmpsmcr |= (uint32_t)(TIM_ExtTRGPrescaler | (TIM_ExtTRGPolarity | (ExtTRGFilter << 8U)));
 8001f70:	688b      	ldr	r3, [r1, #8]
 8001f72:	68c9      	ldr	r1, [r1, #12]
 8001f74:	432b      	orrs	r3, r5
 8001f76:	0209      	lsls	r1, r1, #8
 8001f78:	430b      	orrs	r3, r1
 8001f7a:	4323      	orrs	r3, r4

  /* Write to TIMx SMCR */
  TIMx->SMCR = tmpsmcr;
 8001f7c:	6093      	str	r3, [r2, #8]
      htim->Instance->SMCR |= TIM_SMCR_ECE;
 8001f7e:	2380      	movs	r3, #128	; 0x80
 8001f80:	6891      	ldr	r1, [r2, #8]
 8001f82:	01db      	lsls	r3, r3, #7
 8001f84:	430b      	orrs	r3, r1
 8001f86:	6093      	str	r3, [r2, #8]
      break;
 8001f88:	e7d3      	b.n	8001f32 <HAL_TIM_ConfigClockSource+0x5e>
  switch (sClockSourceConfig->ClockSource)
 8001f8a:	2110      	movs	r1, #16
 8001f8c:	001c      	movs	r4, r3
 8001f8e:	438c      	bics	r4, r1
 8001f90:	d1cf      	bne.n	8001f32 <HAL_TIM_ConfigClockSource+0x5e>
 8001f92:	e7db      	b.n	8001f4c <HAL_TIM_ConfigClockSource+0x78>
      TIM_TI1_ConfigInputStage(htim->Instance,
 8001f94:	684d      	ldr	r5, [r1, #4]
 8001f96:	68cb      	ldr	r3, [r1, #12]
  tmpccer = TIMx->CCER;
 8001f98:	6a11      	ldr	r1, [r2, #32]
  TIMx->CCER &= ~TIM_CCER_CC1E;
 8001f9a:	6a16      	ldr	r6, [r2, #32]
  tmpccmr1 |= (TIM_ICFilter << 4U);
 8001f9c:	011b      	lsls	r3, r3, #4
  TIMx->CCER &= ~TIM_CCER_CC1E;
 8001f9e:	43a6      	bics	r6, r4
 8001fa0:	6216      	str	r6, [r2, #32]
  tmpccmr1 &= ~TIM_CCMR1_IC1F;
 8001fa2:	26f0      	movs	r6, #240	; 0xf0
  tmpccmr1 = TIMx->CCMR1;
 8001fa4:	6994      	ldr	r4, [r2, #24]
  tmpccmr1 &= ~TIM_CCMR1_IC1F;
 8001fa6:	43b4      	bics	r4, r6
  tmpccmr1 |= (TIM_ICFilter << 4U);
 8001fa8:	4323      	orrs	r3, r4
  tmpccer &= ~(TIM_CCER_CC1P | TIM_CCER_CC1NP);
 8001faa:	240a      	movs	r4, #10
 8001fac:	43a1      	bics	r1, r4
  tmpccer |= TIM_ICPolarity;
 8001fae:	4329      	orrs	r1, r5
  TIMx->CCMR1 = tmpccmr1;
 8001fb0:	6193      	str	r3, [r2, #24]
  TIMx->CCER = tmpccer;
 8001fb2:	6211      	str	r1, [r2, #32]
  tmpsmcr &= ~TIM_SMCR_TS;
 8001fb4:	2170      	movs	r1, #112	; 0x70
  tmpsmcr = TIMx->SMCR;
 8001fb6:	6893      	ldr	r3, [r2, #8]
  tmpsmcr &= ~TIM_SMCR_TS;
 8001fb8:	438b      	bics	r3, r1
  tmpsmcr |= (InputTriggerSource | TIM_SLAVEMODE_EXTERNAL1);
 8001fba:	3929      	subs	r1, #41	; 0x29
 8001fbc:	430b      	orrs	r3, r1
  TIMx->SMCR = tmpsmcr;
 8001fbe:	6093      	str	r3, [r2, #8]
}
 8001fc0:	e7b7      	b.n	8001f32 <HAL_TIM_ConfigClockSource+0x5e>
  __HAL_LOCK(htim);
 8001fc2:	2002      	movs	r0, #2
 8001fc4:	e7bc      	b.n	8001f40 <HAL_TIM_ConfigClockSource+0x6c>
  TIMx->CCER &= ~TIM_CCER_CC2E;
 8001fc6:	2510      	movs	r5, #16
 8001fc8:	6a14      	ldr	r4, [r2, #32]
      TIM_TI2_ConfigInputStage(htim->Instance,
 8001fca:	684b      	ldr	r3, [r1, #4]
  TIMx->CCER &= ~TIM_CCER_CC2E;
 8001fcc:	43ac      	bics	r4, r5
      TIM_TI2_ConfigInputStage(htim->Instance,
 8001fce:	68c9      	ldr	r1, [r1, #12]
  TIMx->CCER &= ~TIM_CCER_CC2E;
 8001fd0:	6214      	str	r4, [r2, #32]
  tmpccmr1 = TIMx->CCMR1;
 8001fd2:	6995      	ldr	r5, [r2, #24]
  tmpccmr1 &= ~TIM_CCMR1_IC2F;
 8001fd4:	4e12      	ldr	r6, [pc, #72]	; (8002020 <HAL_TIM_ConfigClockSource+0x14c>)
  tmpccmr1 |= (TIM_ICFilter << 12U);
 8001fd6:	0309      	lsls	r1, r1, #12
  tmpccmr1 &= ~TIM_CCMR1_IC2F;
 8001fd8:	4035      	ands	r5, r6
  tmpccmr1 |= (TIM_ICFilter << 12U);
 8001fda:	4329      	orrs	r1, r5
  tmpccer &= ~(TIM_CCER_CC2P | TIM_CCER_CC2NP);
 8001fdc:	25a0      	movs	r5, #160	; 0xa0
  tmpccer = TIMx->CCER;
 8001fde:	6a14      	ldr	r4, [r2, #32]
  TIMx->CCMR1 = tmpccmr1 ;
 8001fe0:	6191      	str	r1, [r2, #24]
  tmpsmcr &= ~TIM_SMCR_TS;
 8001fe2:	2170      	movs	r1, #112	; 0x70
  tmpccer &= ~(TIM_CCER_CC2P | TIM_CCER_CC2NP);
 8001fe4:	43ac      	bics	r4, r5
  tmpccer |= (TIM_ICPolarity << 4U);
 8001fe6:	011b      	lsls	r3, r3, #4
 8001fe8:	4323      	orrs	r3, r4
  TIMx->CCER = tmpccer;
 8001fea:	6213      	str	r3, [r2, #32]
  tmpsmcr = TIMx->SMCR;
 8001fec:	6893      	ldr	r3, [r2, #8]
  tmpsmcr &= ~TIM_SMCR_TS;
 8001fee:	438b      	bics	r3, r1
  tmpsmcr |= (InputTriggerSource | TIM_SLAVEMODE_EXTERNAL1);
 8001ff0:	3909      	subs	r1, #9
 8001ff2:	430b      	orrs	r3, r1
  TIMx->SMCR = tmpsmcr;
 8001ff4:	6093      	str	r3, [r2, #8]
}
 8001ff6:	e79c      	b.n	8001f32 <HAL_TIM_ConfigClockSource+0x5e>
  tmpsmcr = TIMx->SMCR;
 8001ff8:	6893      	ldr	r3, [r2, #8]
  tmpsmcr &= ~(TIM_SMCR_ETF | TIM_SMCR_ETPS | TIM_SMCR_ECE | TIM_SMCR_ETP);
 8001ffa:	4c08      	ldr	r4, [pc, #32]	; (800201c <HAL_TIM_ConfigClockSource+0x148>)
  tmpsmcr |= (uint32_t)(TIM_ExtTRGPrescaler | (TIM_ExtTRGPolarity | (ExtTRGFilter << 8U)));
 8001ffc:	684d      	ldr	r5, [r1, #4]
  tmpsmcr &= ~(TIM_SMCR_ETF | TIM_SMCR_ETPS | TIM_SMCR_ECE | TIM_SMCR_ETP);
 8001ffe:	401c      	ands	r4, r3
  tmpsmcr |= (uint32_t)(TIM_ExtTRGPrescaler | (TIM_ExtTRGPolarity | (ExtTRGFilter << 8U)));
 8002000:	688b      	ldr	r3, [r1, #8]
 8002002:	68c9      	ldr	r1, [r1, #12]
 8002004:	432b      	orrs	r3, r5
 8002006:	0209      	lsls	r1, r1, #8
 8002008:	430b      	orrs	r3, r1
      tmpsmcr |= (TIM_SLAVEMODE_EXTERNAL1 | TIM_CLOCKSOURCE_ETRMODE1);
 800200a:	2177      	movs	r1, #119	; 0x77
  tmpsmcr |= (uint32_t)(TIM_ExtTRGPrescaler | (TIM_ExtTRGPolarity | (ExtTRGFilter << 8U)));
 800200c:	4323      	orrs	r3, r4
  TIMx->SMCR = tmpsmcr;
 800200e:	6093      	str	r3, [r2, #8]
      tmpsmcr = htim->Instance->SMCR;
 8002010:	6893      	ldr	r3, [r2, #8]
      tmpsmcr |= (TIM_SLAVEMODE_EXTERNAL1 | TIM_CLOCKSOURCE_ETRMODE1);
 8002012:	430b      	orrs	r3, r1
      htim->Instance->SMCR = tmpsmcr;
 8002014:	6093      	str	r3, [r2, #8]
      break;
 8002016:	e78c      	b.n	8001f32 <HAL_TIM_ConfigClockSource+0x5e>
 8002018:	ffff0088 	.word	0xffff0088
 800201c:	ffff00ff 	.word	0xffff00ff
 8002020:	ffff0fff 	.word	0xffff0fff

08002024 <HAL_TIM_OC_DelayElapsedCallback>:
 8002024:	4770      	bx	lr
 8002026:	46c0      	nop			; (mov r8, r8)

08002028 <HAL_TIM_IC_CaptureCallback>:
 8002028:	4770      	bx	lr
 800202a:	46c0      	nop			; (mov r8, r8)

0800202c <HAL_TIM_PWM_PulseFinishedCallback>:
 800202c:	4770      	bx	lr
 800202e:	46c0      	nop			; (mov r8, r8)

08002030 <HAL_TIM_TriggerCallback>:
 8002030:	4770      	bx	lr
 8002032:	46c0      	nop			; (mov r8, r8)

08002034 <HAL_TIM_IRQHandler>:
  if (__HAL_TIM_GET_FLAG(htim, TIM_FLAG_CC1) != RESET)
 8002034:	2202      	movs	r2, #2
 8002036:	6803      	ldr	r3, [r0, #0]
{
 8002038:	b510      	push	{r4, lr}
  if (__HAL_TIM_GET_FLAG(htim, TIM_FLAG_CC1) != RESET)
 800203a:	6919      	ldr	r1, [r3, #16]
{
 800203c:	0004      	movs	r4, r0
  if (__HAL_TIM_GET_FLAG(htim, TIM_FLAG_CC1) != RESET)
 800203e:	420a      	tst	r2, r1
 8002040:	d002      	beq.n	8002048 <HAL_TIM_IRQHandler+0x14>
    if (__HAL_TIM_GET_IT_SOURCE(htim, TIM_IT_CC1) != RESET)
 8002042:	68d9      	ldr	r1, [r3, #12]
 8002044:	420a      	tst	r2, r1
 8002046:	d154      	bne.n	80020f2 <HAL_TIM_IRQHandler+0xbe>
  if (__HAL_TIM_GET_FLAG(htim, TIM_FLAG_CC2) != RESET)
 8002048:	2204      	movs	r2, #4
 800204a:	6919      	ldr	r1, [r3, #16]
 800204c:	420a      	tst	r2, r1
 800204e:	d002      	beq.n	8002056 <HAL_TIM_IRQHandler+0x22>
    if (__HAL_TIM_GET_IT_SOURCE(htim, TIM_IT_CC2) != RESET)
 8002050:	68d9      	ldr	r1, [r3, #12]
 8002052:	420a      	tst	r2, r1
 8002054:	d13a      	bne.n	80020cc <HAL_TIM_IRQHandler+0x98>
  if (__HAL_TIM_GET_FLAG(htim, TIM_FLAG_CC3) != RESET)
 8002056:	2208      	movs	r2, #8
 8002058:	6919      	ldr	r1, [r3, #16]
 800205a:	420a      	tst	r2, r1
 800205c:	d002      	beq.n	8002064 <HAL_TIM_IRQHandler+0x30>
    if (__HAL_TIM_GET_IT_SOURCE(htim, TIM_IT_CC3) != RESET)
 800205e:	68d9      	ldr	r1, [r3, #12]
 8002060:	420a      	tst	r2, r1
 8002062:	d125      	bne.n	80020b0 <HAL_TIM_IRQHandler+0x7c>
  if (__HAL_TIM_GET_FLAG(htim, TIM_FLAG_CC4) != RESET)
 8002064:	2210      	movs	r2, #16
 8002066:	6919      	ldr	r1, [r3, #16]
 8002068:	420a      	tst	r2, r1
 800206a:	d002      	beq.n	8002072 <HAL_TIM_IRQHandler+0x3e>
    if (__HAL_TIM_GET_IT_SOURCE(htim, TIM_IT_CC4) != RESET)
 800206c:	68d9      	ldr	r1, [r3, #12]
 800206e:	420a      	tst	r2, r1
 8002070:	d10e      	bne.n	8002090 <HAL_TIM_IRQHandler+0x5c>
  if (__HAL_TIM_GET_FLAG(htim, TIM_FLAG_UPDATE) != RESET)
 8002072:	2201      	movs	r2, #1
 8002074:	6919      	ldr	r1, [r3, #16]
 8002076:	420a      	tst	r2, r1
 8002078:	d002      	beq.n	8002080 <HAL_TIM_IRQHandler+0x4c>
    if (__HAL_TIM_GET_IT_SOURCE(htim, TIM_IT_UPDATE) != RESET)
 800207a:	68d9      	ldr	r1, [r3, #12]
 800207c:	420a      	tst	r2, r1
 800207e:	d14e      	bne.n	800211e <HAL_TIM_IRQHandler+0xea>
  if (__HAL_TIM_GET_FLAG(htim, TIM_FLAG_TRIGGER) != RESET)
 8002080:	2240      	movs	r2, #64	; 0x40
 8002082:	6919      	ldr	r1, [r3, #16]
 8002084:	420a      	tst	r2, r1
 8002086:	d002      	beq.n	800208e <HAL_TIM_IRQHandler+0x5a>
    if (__HAL_TIM_GET_IT_SOURCE(htim, TIM_IT_TRIGGER) != RESET)
 8002088:	68d9      	ldr	r1, [r3, #12]
 800208a:	420a      	tst	r2, r1
 800208c:	d141      	bne.n	8002112 <HAL_TIM_IRQHandler+0xde>
}
 800208e:	bd10      	pop	{r4, pc}
      __HAL_TIM_CLEAR_IT(htim, TIM_IT_CC4);
 8002090:	3a21      	subs	r2, #33	; 0x21
 8002092:	611a      	str	r2, [r3, #16]
      htim->Channel = HAL_TIM_ACTIVE_CHANNEL_4;
 8002094:	3219      	adds	r2, #25
 8002096:	7622      	strb	r2, [r4, #24]
      if ((htim->Instance->CCMR2 & TIM_CCMR2_CC4S) != 0x00U)
 8002098:	69da      	ldr	r2, [r3, #28]
 800209a:	23c0      	movs	r3, #192	; 0xc0
 800209c:	009b      	lsls	r3, r3, #2
        HAL_TIM_IC_CaptureCallback(htim);
 800209e:	0020      	movs	r0, r4
      if ((htim->Instance->CCMR2 & TIM_CCMR2_CC4S) != 0x00U)
 80020a0:	421a      	tst	r2, r3
 80020a2:	d043      	beq.n	800212c <HAL_TIM_IRQHandler+0xf8>
        HAL_TIM_IC_CaptureCallback(htim);
 80020a4:	f7ff ffc0 	bl	8002028 <HAL_TIM_IC_CaptureCallback>
      htim->Channel = HAL_TIM_ACTIVE_CHANNEL_CLEARED;
 80020a8:	2300      	movs	r3, #0
 80020aa:	7623      	strb	r3, [r4, #24]
 80020ac:	6823      	ldr	r3, [r4, #0]
 80020ae:	e7e0      	b.n	8002072 <HAL_TIM_IRQHandler+0x3e>
      __HAL_TIM_CLEAR_IT(htim, TIM_IT_CC3);
 80020b0:	3a11      	subs	r2, #17
 80020b2:	611a      	str	r2, [r3, #16]
      htim->Channel = HAL_TIM_ACTIVE_CHANNEL_3;
 80020b4:	320d      	adds	r2, #13
 80020b6:	7622      	strb	r2, [r4, #24]
      if ((htim->Instance->CCMR2 & TIM_CCMR2_CC3S) != 0x00U)
 80020b8:	69db      	ldr	r3, [r3, #28]
        HAL_TIM_IC_CaptureCallback(htim);
 80020ba:	0020      	movs	r0, r4
      if ((htim->Instance->CCMR2 & TIM_CCMR2_CC3S) != 0x00U)
 80020bc:	079b      	lsls	r3, r3, #30
 80020be:	d041      	beq.n	8002144 <HAL_TIM_IRQHandler+0x110>
        HAL_TIM_IC_CaptureCallback(htim);
 80020c0:	f7ff ffb2 	bl	8002028 <HAL_TIM_IC_CaptureCallback>
      htim->Channel = HAL_TIM_ACTIVE_CHANNEL_CLEARED;
 80020c4:	2300      	movs	r3, #0
 80020c6:	7623      	strb	r3, [r4, #24]
 80020c8:	6823      	ldr	r3, [r4, #0]
 80020ca:	e7cb      	b.n	8002064 <HAL_TIM_IRQHandler+0x30>
      __HAL_TIM_CLEAR_IT(htim, TIM_IT_CC2);
 80020cc:	3a09      	subs	r2, #9
 80020ce:	611a      	str	r2, [r3, #16]
      htim->Channel = HAL_TIM_ACTIVE_CHANNEL_2;
 80020d0:	3207      	adds	r2, #7
 80020d2:	7622      	strb	r2, [r4, #24]
      if ((htim->Instance->CCMR1 & TIM_CCMR1_CC2S) != 0x00U)
 80020d4:	699a      	ldr	r2, [r3, #24]
 80020d6:	23c0      	movs	r3, #192	; 0xc0
 80020d8:	009b      	lsls	r3, r3, #2
        HAL_TIM_IC_CaptureCallback(htim);
 80020da:	0020      	movs	r0, r4
      if ((htim->Instance->CCMR1 & TIM_CCMR1_CC2S) != 0x00U)
 80020dc:	421a      	tst	r2, r3
 80020de:	d12e      	bne.n	800213e <HAL_TIM_IRQHandler+0x10a>
        HAL_TIM_OC_DelayElapsedCallback(htim);
 80020e0:	f7ff ffa0 	bl	8002024 <HAL_TIM_OC_DelayElapsedCallback>
        HAL_TIM_PWM_PulseFinishedCallback(htim);
 80020e4:	0020      	movs	r0, r4
 80020e6:	f7ff ffa1 	bl	800202c <HAL_TIM_PWM_PulseFinishedCallback>
      htim->Channel = HAL_TIM_ACTIVE_CHANNEL_CLEARED;
 80020ea:	2300      	movs	r3, #0
 80020ec:	7623      	strb	r3, [r4, #24]
 80020ee:	6823      	ldr	r3, [r4, #0]
 80020f0:	e7b1      	b.n	8002056 <HAL_TIM_IRQHandler+0x22>
        __HAL_TIM_CLEAR_IT(htim, TIM_IT_CC1);
 80020f2:	3a05      	subs	r2, #5
 80020f4:	611a      	str	r2, [r3, #16]
        htim->Channel = HAL_TIM_ACTIVE_CHANNEL_1;
 80020f6:	3204      	adds	r2, #4
 80020f8:	7602      	strb	r2, [r0, #24]
        if ((htim->Instance->CCMR1 & TIM_CCMR1_CC1S) != 0x00U)
 80020fa:	699b      	ldr	r3, [r3, #24]
 80020fc:	079b      	lsls	r3, r3, #30
 80020fe:	d11b      	bne.n	8002138 <HAL_TIM_IRQHandler+0x104>
          HAL_TIM_OC_DelayElapsedCallback(htim);
 8002100:	f7ff ff90 	bl	8002024 <HAL_TIM_OC_DelayElapsedCallback>
          HAL_TIM_PWM_PulseFinishedCallback(htim);
 8002104:	0020      	movs	r0, r4
 8002106:	f7ff ff91 	bl	800202c <HAL_TIM_PWM_PulseFinishedCallback>
        htim->Channel = HAL_TIM_ACTIVE_CHANNEL_CLEARED;
 800210a:	2300      	movs	r3, #0
 800210c:	7623      	strb	r3, [r4, #24]
 800210e:	6823      	ldr	r3, [r4, #0]
 8002110:	e79a      	b.n	8002048 <HAL_TIM_IRQHandler+0x14>
      __HAL_TIM_CLEAR_IT(htim, TIM_IT_TRIGGER);
 8002112:	3a81      	subs	r2, #129	; 0x81
      HAL_TIM_TriggerCallback(htim);
 8002114:	0020      	movs	r0, r4
      __HAL_TIM_CLEAR_IT(htim, TIM_IT_TRIGGER);
 8002116:	611a      	str	r2, [r3, #16]
      HAL_TIM_TriggerCallback(htim);
 8002118:	f7ff ff8a 	bl	8002030 <HAL_TIM_TriggerCallback>
}
 800211c:	e7b7      	b.n	800208e <HAL_TIM_IRQHandler+0x5a>
      __HAL_TIM_CLEAR_IT(htim, TIM_IT_UPDATE);
 800211e:	3a03      	subs	r2, #3
 8002120:	611a      	str	r2, [r3, #16]
      HAL_TIM_PeriodElapsedCallback(htim);
 8002122:	0020      	movs	r0, r4
 8002124:	f000 fd74 	bl	8002c10 <HAL_TIM_PeriodElapsedCallback>
 8002128:	6823      	ldr	r3, [r4, #0]
 800212a:	e7a9      	b.n	8002080 <HAL_TIM_IRQHandler+0x4c>
        HAL_TIM_OC_DelayElapsedCallback(htim);
 800212c:	f7ff ff7a 	bl	8002024 <HAL_TIM_OC_DelayElapsedCallback>
        HAL_TIM_PWM_PulseFinishedCallback(htim);
 8002130:	0020      	movs	r0, r4
 8002132:	f7ff ff7b 	bl	800202c <HAL_TIM_PWM_PulseFinishedCallback>
 8002136:	e7b7      	b.n	80020a8 <HAL_TIM_IRQHandler+0x74>
          HAL_TIM_IC_CaptureCallback(htim);
 8002138:	f7ff ff76 	bl	8002028 <HAL_TIM_IC_CaptureCallback>
 800213c:	e7e5      	b.n	800210a <HAL_TIM_IRQHandler+0xd6>
        HAL_TIM_IC_CaptureCallback(htim);
 800213e:	f7ff ff73 	bl	8002028 <HAL_TIM_IC_CaptureCallback>
 8002142:	e7d2      	b.n	80020ea <HAL_TIM_IRQHandler+0xb6>
        HAL_TIM_OC_DelayElapsedCallback(htim);
 8002144:	f7ff ff6e 	bl	8002024 <HAL_TIM_OC_DelayElapsedCallback>
        HAL_TIM_PWM_PulseFinishedCallback(htim);
 8002148:	0020      	movs	r0, r4
 800214a:	f7ff ff6f 	bl	800202c <HAL_TIM_PWM_PulseFinishedCallback>
 800214e:	e7b9      	b.n	80020c4 <HAL_TIM_IRQHandler+0x90>

08002150 <HAL_TIMEx_MasterConfigSynchronization>:
  assert_param(IS_TIM_MASTER_INSTANCE(htim->Instance));
  assert_param(IS_TIM_TRGO_SOURCE(sMasterConfig->MasterOutputTrigger));
  assert_param(IS_TIM_MSM_STATE(sMasterConfig->MasterSlaveMode));

  /* Check input state */
  __HAL_LOCK(htim);
 8002150:	2338      	movs	r3, #56	; 0x38
{
 8002152:	b530      	push	{r4, r5, lr}
  __HAL_LOCK(htim);
 8002154:	5cc3      	ldrb	r3, [r0, r3]
 8002156:	2b01      	cmp	r3, #1
 8002158:	d021      	beq.n	800219e <HAL_TIMEx_MasterConfigSynchronization+0x4e>

  /* Change the handler state */
  htim->State = HAL_TIM_STATE_BUSY;
 800215a:	2339      	movs	r3, #57	; 0x39
 800215c:	2202      	movs	r2, #2

  /* Get the TIMx SMCR register value */
  tmpsmcr = htim->Instance->SMCR;

  /* Reset the MMS Bits */
  tmpcr2 &= ~TIM_CR2_MMS;
 800215e:	2570      	movs	r5, #112	; 0x70
  htim->State = HAL_TIM_STATE_BUSY;
 8002160:	54c2      	strb	r2, [r0, r3]
  tmpcr2 = htim->Instance->CR2;
 8002162:	6803      	ldr	r3, [r0, #0]
 8002164:	685a      	ldr	r2, [r3, #4]
  tmpsmcr = htim->Instance->SMCR;
 8002166:	689c      	ldr	r4, [r3, #8]
  tmpcr2 &= ~TIM_CR2_MMS;
 8002168:	43aa      	bics	r2, r5
  /* Select the TRGO source */
  tmpcr2 |=  sMasterConfig->MasterOutputTrigger;
 800216a:	680d      	ldr	r5, [r1, #0]
 800216c:	432a      	orrs	r2, r5

  /* Update TIMx CR2 */
  htim->Instance->CR2 = tmpcr2;
 800216e:	605a      	str	r2, [r3, #4]

  if (IS_TIM_SLAVE_INSTANCE(htim->Instance))
 8002170:	2280      	movs	r2, #128	; 0x80
 8002172:	05d2      	lsls	r2, r2, #23
 8002174:	4293      	cmp	r3, r2
 8002176:	d005      	beq.n	8002184 <HAL_TIMEx_MasterConfigSynchronization+0x34>
 8002178:	4a0a      	ldr	r2, [pc, #40]	; (80021a4 <HAL_TIMEx_MasterConfigSynchronization+0x54>)
 800217a:	4293      	cmp	r3, r2
 800217c:	d002      	beq.n	8002184 <HAL_TIMEx_MasterConfigSynchronization+0x34>
 800217e:	4a0a      	ldr	r2, [pc, #40]	; (80021a8 <HAL_TIMEx_MasterConfigSynchronization+0x58>)
 8002180:	4293      	cmp	r3, r2
 8002182:	d104      	bne.n	800218e <HAL_TIMEx_MasterConfigSynchronization+0x3e>
  {
    /* Reset the MSM Bit */
    tmpsmcr &= ~TIM_SMCR_MSM;
 8002184:	2280      	movs	r2, #128	; 0x80
 8002186:	4394      	bics	r4, r2
    /* Set master mode */
    tmpsmcr |= sMasterConfig->MasterSlaveMode;
 8002188:	684a      	ldr	r2, [r1, #4]
 800218a:	4314      	orrs	r4, r2

    /* Update TIMx SMCR */
    htim->Instance->SMCR = tmpsmcr;
 800218c:	609c      	str	r4, [r3, #8]
  }

  /* Change the htim state */
  htim->State = HAL_TIM_STATE_READY;
 800218e:	2339      	movs	r3, #57	; 0x39
 8002190:	2201      	movs	r2, #1
 8002192:	54c2      	strb	r2, [r0, r3]

  __HAL_UNLOCK(htim);
 8002194:	2200      	movs	r2, #0
 8002196:	3b01      	subs	r3, #1
 8002198:	54c2      	strb	r2, [r0, r3]

  return HAL_OK;
 800219a:	2000      	movs	r0, #0
}
 800219c:	bd30      	pop	{r4, r5, pc}
  __HAL_LOCK(htim);
 800219e:	2002      	movs	r0, #2
 80021a0:	e7fc      	b.n	800219c <HAL_TIMEx_MasterConfigSynchronization+0x4c>
 80021a2:	46c0      	nop			; (mov r8, r8)
 80021a4:	40010800 	.word	0x40010800
 80021a8:	40011400 	.word	0x40011400

080021ac <internal_bus_create>:
#include "Bus.h"

InternalBus_t * internal_bus_create(GPIO_TypeDef *bus_line,uint16_t bus_pins,GPIO_TypeDef *cl_bus,uint16_t cl_pin,GPIO_TypeDef *ak_bus,uint16_t ak_pin)
{
 80021ac:	b5f0      	push	{r4, r5, r6, r7, lr}
 80021ae:	4657      	mov	r7, sl
 80021b0:	464e      	mov	r6, r9
 80021b2:	4645      	mov	r5, r8
 80021b4:	46de      	mov	lr, fp
 80021b6:	b5e0      	push	{r5, r6, r7, lr}
 80021b8:	b087      	sub	sp, #28
 80021ba:	001e      	movs	r6, r3
 80021bc:	9301      	str	r3, [sp, #4]
 80021be:	ab10      	add	r3, sp, #64	; 0x40
 80021c0:	4680      	mov	r8, r0
 80021c2:	cb01      	ldmia	r3!, {r0}
 80021c4:	4689      	mov	r9, r1
 80021c6:	881c      	ldrh	r4, [r3, #0]
 80021c8:	4682      	mov	sl, r0
	InternalBus_t * thisInternalBus = (InternalBus_t *) malloc(sizeof(InternalBus_t));
 80021ca:	203c      	movs	r0, #60	; 0x3c
{
 80021cc:	0017      	movs	r7, r2
 80021ce:	9100      	str	r1, [sp, #0]
 80021d0:	9205      	str	r2, [sp, #20]
 80021d2:	9402      	str	r4, [sp, #8]
	InternalBus_t * thisInternalBus = (InternalBus_t *) malloc(sizeof(InternalBus_t));
 80021d4:	f000 ff92 	bl	80030fc <malloc>
	if(thisInternalBus != NULL)
 80021d8:	2800      	cmp	r0, #0
 80021da:	d100      	bne.n	80021de <internal_bus_create+0x32>
 80021dc:	e09e      	b.n	800231c <internal_bus_create+0x170>
	{
		//assign desired value for clock pin and other bus  so this bus will now which pins assigned for clock ack and bus line it self
		//everything else in this lib should use this data for other settings
		thisInternalBus->bus = bus_line;
 80021de:	4645      	mov	r5, r8
		thisInternalBus->bus_mask = bus_pins;
 80021e0:	4649      	mov	r1, r9
		thisInternalBus->BUS_BUSMASK32 = 0;
 80021e2:	2200      	movs	r2, #0
 80021e4:	2300      	movs	r3, #0
		thisInternalBus->bus = bus_line;
 80021e6:	6005      	str	r5, [r0, #0]
		thisInternalBus->bus_mask = bus_pins;
 80021e8:	8081      	strh	r1, [r0, #4]
		thisInternalBus->bus_clk_mask = cl_pin;
		thisInternalBus->BUS_CLKMASK32 = 0;
		thisInternalBus->BUS_CLKMODER = 0;
		thisInternalBus->BUS_CLKOSPEEDR = 0;

		thisInternalBus->bus_ack = ak_bus;
 80021ea:	4655      	mov	r5, sl
		thisInternalBus->BUS_BUSOSPEEDR = 0;
 80021ec:	2100      	movs	r1, #0
		thisInternalBus->BUS_BUSMASK32 = 0;
 80021ee:	6082      	str	r2, [r0, #8]
 80021f0:	60c3      	str	r3, [r0, #12]
		thisInternalBus->bus_ack_mask = ak_pin;
		thisInternalBus->BUS_ACKMASK32 = 0;
 80021f2:	6302      	str	r2, [r0, #48]	; 0x30
 80021f4:	6343      	str	r3, [r0, #52]	; 0x34
		thisInternalBus->BUS_BUSOSPEEDR = 0;
 80021f6:	6101      	str	r1, [r0, #16]
		thisInternalBus->BUS_ACKMODER = 0;
		thisInternalBus->BUS_ACKOSPEEDR = 0;
 80021f8:	2300      	movs	r3, #0
		thisInternalBus->BUS_CLKMASK32 = 0;
 80021fa:	61c1      	str	r1, [r0, #28]
		thisInternalBus->BUS_CLKMODER = 0;
 80021fc:	6201      	str	r1, [r0, #32]
		thisInternalBus->BUS_CLKOSPEEDR = 0;
 80021fe:	6241      	str	r1, [r0, #36]	; 0x24
		thisInternalBus->bus_ack = ak_bus;
 8002200:	6285      	str	r5, [r0, #40]	; 0x28
		thisInternalBus->BUS_ACKOSPEEDR = 0;
 8002202:	6381      	str	r1, [r0, #56]	; 0x38
 8002204:	2500      	movs	r5, #0
		uint32_t pinShifter = 0;
		for (pinShifter = 0; pinShifter < BUS_GPIO_PINS_PER_BUS; pinShifter++)
		{
			if (bus_pins & (1 << pinShifter))
			{
				thisInternalBus->BUS_BUSMASK32  |= (0b11 << (pinShifter * 2));
 8002206:	9103      	str	r1, [sp, #12]
 8002208:	4641      	mov	r1, r8
		thisInternalBus->bus_clk = cl_bus;
 800220a:	6147      	str	r7, [r0, #20]
		thisInternalBus->bus_clk_mask = cl_pin;
 800220c:	8306      	strh	r6, [r0, #24]
		thisInternalBus->BUS_ACKOSPEEDR = 0;
 800220e:	469c      	mov	ip, r3
 8002210:	2700      	movs	r7, #0
 8002212:	2600      	movs	r6, #0
				thisInternalBus->BUS_BUSMASK32  |= (0b11 << (pinShifter * 2));
 8002214:	46a8      	mov	r8, r5
 8002216:	4689      	mov	r9, r1
		thisInternalBus->bus_ack_mask = ak_pin;
 8002218:	8584      	strh	r4, [r0, #44]	; 0x2c
			if (bus_pins & (1 << pinShifter))
 800221a:	3201      	adds	r2, #1
				thisInternalBus->BUS_BUSMASK32  |= (0b11 << (pinShifter * 2));
 800221c:	9304      	str	r3, [sp, #16]
			if (bus_pins & (1 << pinShifter))
 800221e:	9c00      	ldr	r4, [sp, #0]
 8002220:	411c      	asrs	r4, r3
 8002222:	4222      	tst	r2, r4
 8002224:	d012      	beq.n	800224c <internal_bus_create+0xa0>
				thisInternalBus->BUS_BUSMASK32  |= (0b11 << (pinShifter * 2));
 8002226:	2103      	movs	r1, #3
 8002228:	005c      	lsls	r4, r3, #1
 800222a:	40a1      	lsls	r1, r4
 800222c:	9d03      	ldr	r5, [sp, #12]
 800222e:	468b      	mov	fp, r1
 8002230:	430d      	orrs	r5, r1
				thisInternalBus->BUS_BUSMODER   |= (0b01 << (pinShifter * 2));
 8002232:	0011      	movs	r1, r2
 8002234:	40a1      	lsls	r1, r4
 8002236:	000c      	movs	r4, r1
 8002238:	68c1      	ldr	r1, [r0, #12]
				thisInternalBus->BUS_BUSMASK32  |= (0b11 << (pinShifter * 2));
 800223a:	9503      	str	r5, [sp, #12]
				thisInternalBus->BUS_BUSMODER   |= (0b01 << (pinShifter * 2));
 800223c:	430c      	orrs	r4, r1
				thisInternalBus->BUS_BUSOSPEEDR |= (0b11 << (pinShifter * 2));
 800223e:	4659      	mov	r1, fp
				thisInternalBus->BUS_BUSMODER   |= (0b01 << (pinShifter * 2));
 8002240:	60c4      	str	r4, [r0, #12]
				thisInternalBus->BUS_BUSOSPEEDR |= (0b11 << (pinShifter * 2));
 8002242:	9c04      	ldr	r4, [sp, #16]
				thisInternalBus->BUS_BUSMASK32  |= (0b11 << (pinShifter * 2));
 8002244:	6085      	str	r5, [r0, #8]
				thisInternalBus->BUS_BUSOSPEEDR |= (0b11 << (pinShifter * 2));
 8002246:	430c      	orrs	r4, r1
 8002248:	9404      	str	r4, [sp, #16]
 800224a:	6104      	str	r4, [r0, #16]
			}
			if (cl_pin & (1 << pinShifter))
 800224c:	9c01      	ldr	r4, [sp, #4]
 800224e:	411c      	asrs	r4, r3
 8002250:	4222      	tst	r2, r4
 8002252:	d00e      	beq.n	8002272 <internal_bus_create+0xc6>
			{
				thisInternalBus->BUS_CLKMASK32  |= (0b11 << (pinShifter * 2));
 8002254:	2103      	movs	r1, #3
 8002256:	005c      	lsls	r4, r3, #1
 8002258:	40a1      	lsls	r1, r4
 800225a:	468b      	mov	fp, r1
 800225c:	430e      	orrs	r6, r1
				thisInternalBus->BUS_CLKMODER   |= (0b01 << (pinShifter * 2));
 800225e:	0011      	movs	r1, r2
 8002260:	40a1      	lsls	r1, r4
 8002262:	000c      	movs	r4, r1
 8002264:	6a01      	ldr	r1, [r0, #32]
				thisInternalBus->BUS_CLKMASK32  |= (0b11 << (pinShifter * 2));
 8002266:	61c6      	str	r6, [r0, #28]
				thisInternalBus->BUS_CLKMODER   |= (0b01 << (pinShifter * 2));
 8002268:	430c      	orrs	r4, r1
				thisInternalBus->BUS_CLKOSPEEDR |= (0b11 << (pinShifter * 2));
 800226a:	4659      	mov	r1, fp
 800226c:	430f      	orrs	r7, r1
				thisInternalBus->BUS_CLKMODER   |= (0b01 << (pinShifter * 2));
 800226e:	6204      	str	r4, [r0, #32]
				thisInternalBus->BUS_CLKOSPEEDR |= (0b11 << (pinShifter * 2));
 8002270:	6247      	str	r7, [r0, #36]	; 0x24
			}
			if (ak_pin & (1 << pinShifter))
 8002272:	9c02      	ldr	r4, [sp, #8]
 8002274:	411c      	asrs	r4, r3
 8002276:	4222      	tst	r2, r4
 8002278:	d012      	beq.n	80022a0 <internal_bus_create+0xf4>
			{
				thisInternalBus->BUS_ACKMASK32  |= (0b11 << (pinShifter * 2));
 800227a:	2103      	movs	r1, #3
 800227c:	005c      	lsls	r4, r3, #1
 800227e:	40a1      	lsls	r1, r4
 8002280:	468b      	mov	fp, r1
 8002282:	4641      	mov	r1, r8
 8002284:	465d      	mov	r5, fp
 8002286:	4329      	orrs	r1, r5
 8002288:	4688      	mov	r8, r1
 800228a:	6301      	str	r1, [r0, #48]	; 0x30
				thisInternalBus->BUS_ACKMODER   |= (0b01 << (pinShifter * 2));
 800228c:	0011      	movs	r1, r2
 800228e:	40a1      	lsls	r1, r4
 8002290:	000c      	movs	r4, r1
 8002292:	6b41      	ldr	r1, [r0, #52]	; 0x34
 8002294:	430c      	orrs	r4, r1
				thisInternalBus->BUS_ACKOSPEEDR |= (0b11 << (pinShifter * 2));
 8002296:	4661      	mov	r1, ip
 8002298:	4329      	orrs	r1, r5
 800229a:	468c      	mov	ip, r1
				thisInternalBus->BUS_ACKMODER   |= (0b01 << (pinShifter * 2));
 800229c:	6344      	str	r4, [r0, #52]	; 0x34
				thisInternalBus->BUS_ACKOSPEEDR |= (0b11 << (pinShifter * 2));
 800229e:	6381      	str	r1, [r0, #56]	; 0x38
		for (pinShifter = 0; pinShifter < BUS_GPIO_PINS_PER_BUS; pinShifter++)
 80022a0:	3301      	adds	r3, #1
 80022a2:	2b10      	cmp	r3, #16
 80022a4:	d1bb      	bne.n	800221e <internal_bus_create+0x72>
 80022a6:	464b      	mov	r3, r9
 80022a8:	9903      	ldr	r1, [sp, #12]
			}
		}

		uint32_t temp = 0;
		//Set main bus output speed to very high
		temp = thisInternalBus->bus->OSPEEDR;
 80022aa:	689b      	ldr	r3, [r3, #8]
 80022ac:	9a04      	ldr	r2, [sp, #16]
		temp &= ~thisInternalBus->BUS_BUSMASK32;
 80022ae:	438b      	bics	r3, r1
		temp |= thisInternalBus->BUS_BUSOSPEEDR;
 80022b0:	4313      	orrs	r3, r2
		thisInternalBus->bus->OSPEEDR = temp;
 80022b2:	464a      	mov	r2, r9
 80022b4:	6093      	str	r3, [r2, #8]
		//Set main bus output type to output push-pull
		temp = thisInternalBus->bus->OTYPER;
 80022b6:	6853      	ldr	r3, [r2, #4]
		temp &= ~thisInternalBus->bus_mask;
 80022b8:	9c00      	ldr	r4, [sp, #0]
 80022ba:	4645      	mov	r5, r8
 80022bc:	43a3      	bics	r3, r4
		thisInternalBus->bus->OTYPER = temp;
 80022be:	6053      	str	r3, [r2, #4]
		//Set main bus pullup/down resistors to none
		temp = thisInternalBus->bus->PUPDR;
 80022c0:	68d3      	ldr	r3, [r2, #12]
		temp &= ~thisInternalBus->BUS_BUSMASK32;
 80022c2:	438b      	bics	r3, r1
		thisInternalBus->bus->PUPDR = temp;
 80022c4:	60d3      	str	r3, [r2, #12]

		//Set Clock line, output speed to very high
		temp = thisInternalBus->bus_clk->OSPEEDR;
 80022c6:	9a05      	ldr	r2, [sp, #20]
 80022c8:	6893      	ldr	r3, [r2, #8]
		temp &= ~thisInternalBus->BUS_CLKMASK32;
 80022ca:	43b3      	bics	r3, r6
		temp |= thisInternalBus->BUS_CLKOSPEEDR;
 80022cc:	433b      	orrs	r3, r7
		thisInternalBus->bus_clk->OSPEEDR = temp;
 80022ce:	6093      	str	r3, [r2, #8]
		//Set C bus output type to output push-pull
		temp = thisInternalBus->bus_clk->OTYPER;
 80022d0:	6853      	ldr	r3, [r2, #4]
		temp &= ~thisInternalBus->bus_clk_mask;
 80022d2:	9f01      	ldr	r7, [sp, #4]
 80022d4:	43bb      	bics	r3, r7
		thisInternalBus->bus_clk->OTYPER = temp;
 80022d6:	6053      	str	r3, [r2, #4]
		//Set C bus pullup/down resistors to none
		temp = thisInternalBus->bus_clk->PUPDR;
 80022d8:	68d3      	ldr	r3, [r2, #12]
		thisInternalBus->bus_clk->PUPDR = temp;

		//Set Ack line, output speed to very high
		temp = thisInternalBus->bus_ack->OSPEEDR;
		temp &= ~thisInternalBus->BUS_ACKMASK32;
		temp |= thisInternalBus->BUS_ACKOSPEEDR;
 80022da:	4667      	mov	r7, ip
		temp &= ~thisInternalBus->BUS_CLKMASK32;
 80022dc:	43b3      	bics	r3, r6
		thisInternalBus->bus_clk->PUPDR = temp;
 80022de:	60d3      	str	r3, [r2, #12]
		temp = thisInternalBus->bus_ack->OSPEEDR;
 80022e0:	4653      	mov	r3, sl
 80022e2:	689b      	ldr	r3, [r3, #8]
		thisInternalBus->bus_ack->OSPEEDR = temp;
		//Set C bus output type to output push-pull
		temp = thisInternalBus->bus_ack->OTYPER;
		temp &= ~thisInternalBus->bus_ack_mask;
		thisInternalBus->bus_ack->OTYPER = temp;
 80022e4:	4652      	mov	r2, sl
		temp &= ~thisInternalBus->BUS_ACKMASK32;
 80022e6:	43ab      	bics	r3, r5
		temp |= thisInternalBus->BUS_ACKOSPEEDR;
 80022e8:	433b      	orrs	r3, r7
		thisInternalBus->bus_ack->OSPEEDR = temp;
 80022ea:	4657      	mov	r7, sl
 80022ec:	60bb      	str	r3, [r7, #8]
		temp = thisInternalBus->bus_ack->OTYPER;
 80022ee:	687b      	ldr	r3, [r7, #4]
		temp &= ~thisInternalBus->bus_ack_mask;
 80022f0:	9f02      	ldr	r7, [sp, #8]
 80022f2:	43bb      	bics	r3, r7
		thisInternalBus->bus_ack->OTYPER = temp;
 80022f4:	6053      	str	r3, [r2, #4]
		//Set C bus pullup/down resistors to none
		temp = thisInternalBus->bus_ack->PUPDR;
 80022f6:	68d3      	ldr	r3, [r2, #12]
		temp &= ~thisInternalBus->BUS_ACKMASK32;
 80022f8:	43ab      	bics	r3, r5
		thisInternalBus->bus_ack->PUPDR = temp;
 80022fa:	60d3      	str	r3, [r2, #12]

inline void internal_bus_release(InternalBus_t *thisInternalBus)
{
	uint32_t temp = 0;
	//Set all bus pins to low and send complete
	thisInternalBus->bus->BRR = thisInternalBus->bus_mask;
 80022fc:	464b      	mov	r3, r9
 80022fe:	629c      	str	r4, [r3, #40]	; 0x28
	thisInternalBus->bus_ack->BRR = thisInternalBus->bus_ack_mask;
 8002300:	6297      	str	r7, [r2, #40]	; 0x28

	//Set Bus pins to input
	temp = thisInternalBus->bus->MODER;
	temp &= ~thisInternalBus->BUS_BUSMASK32;
	thisInternalBus->bus->MODER = temp;
 8002302:	464a      	mov	r2, r9
	temp = thisInternalBus->bus->MODER;
 8002304:	681b      	ldr	r3, [r3, #0]
	temp &= ~thisInternalBus->BUS_BUSMASK32;
 8002306:	438b      	bics	r3, r1
	thisInternalBus->bus->MODER = temp;
 8002308:	6013      	str	r3, [r2, #0]

	//Set clock pin to input
	temp = thisInternalBus->bus_clk->MODER;
 800230a:	9a05      	ldr	r2, [sp, #20]
 800230c:	6813      	ldr	r3, [r2, #0]
	temp &= ~thisInternalBus->BUS_CLKMASK32;
 800230e:	43b3      	bics	r3, r6
	thisInternalBus->bus_clk->MODER = temp;
 8002310:	6013      	str	r3, [r2, #0]

	//Set ack pins to input
	temp = thisInternalBus->bus_ack->MODER;
 8002312:	4653      	mov	r3, sl
	temp &= ~thisInternalBus->BUS_ACKMASK32;
	thisInternalBus->bus_ack->MODER = temp;
 8002314:	4652      	mov	r2, sl
	temp = thisInternalBus->bus_ack->MODER;
 8002316:	681b      	ldr	r3, [r3, #0]
	temp &= ~thisInternalBus->BUS_ACKMASK32;
 8002318:	43ab      	bics	r3, r5
	thisInternalBus->bus_ack->MODER = temp;
 800231a:	6013      	str	r3, [r2, #0]
}
 800231c:	b007      	add	sp, #28
 800231e:	bcf0      	pop	{r4, r5, r6, r7}
 8002320:	46bb      	mov	fp, r7
 8002322:	46b2      	mov	sl, r6
 8002324:	46a9      	mov	r9, r5
 8002326:	46a0      	mov	r8, r4
 8002328:	bdf0      	pop	{r4, r5, r6, r7, pc}
 800232a:	46c0      	nop			; (mov r8, r8)

0800232c <internal_bus_write_data_frame>:
{
 800232c:	b5f0      	push	{r4, r5, r6, r7, lr}
 800232e:	4646      	mov	r6, r8
 8002330:	46d6      	mov	lr, sl
 8002332:	464f      	mov	r7, r9
	temp = thisInternalBus->bus->MODER;
 8002334:	6804      	ldr	r4, [r0, #0]
{
 8002336:	b5c0      	push	{r6, r7, lr}
	temp = thisInternalBus->bus->MODER;
 8002338:	6823      	ldr	r3, [r4, #0]
	temp &= ~thisInternalBus->BUS_BUSMASK32;
 800233a:	6887      	ldr	r7, [r0, #8]
	temp |= thisInternalBus->BUS_BUSMODER;
 800233c:	68c2      	ldr	r2, [r0, #12]
	temp &= ~thisInternalBus->BUS_BUSMASK32;
 800233e:	43bb      	bics	r3, r7
	temp |= thisInternalBus->BUS_BUSMODER;
 8002340:	4313      	orrs	r3, r2
	thisInternalBus->bus->MODER = temp;
 8002342:	6023      	str	r3, [r4, #0]
	temp = thisInternalBus->bus_clk->MODER;
 8002344:	6943      	ldr	r3, [r0, #20]
	temp &= ~thisInternalBus->BUS_CLKMASK32;
 8002346:	69c5      	ldr	r5, [r0, #28]
	temp = thisInternalBus->bus_clk->MODER;
 8002348:	681a      	ldr	r2, [r3, #0]
	temp &= ~thisInternalBus->BUS_CLKMASK32;
 800234a:	46aa      	mov	sl, r5
 800234c:	43aa      	bics	r2, r5
	temp |= thisInternalBus->BUS_CLKMODER;
 800234e:	6a05      	ldr	r5, [r0, #32]
	temp &= ~thisInternalBus->BUS_ACKMASK32;
 8002350:	6b06      	ldr	r6, [r0, #48]	; 0x30
	temp |= thisInternalBus->BUS_CLKMODER;
 8002352:	432a      	orrs	r2, r5
	temp = thisInternalBus->bus_ack->MODER;
 8002354:	6a85      	ldr	r5, [r0, #40]	; 0x28
	thisInternalBus->bus_clk->MODER = temp;
 8002356:	601a      	str	r2, [r3, #0]
	temp = thisInternalBus->bus_ack->MODER;
 8002358:	682a      	ldr	r2, [r5, #0]
	temp &= ~thisInternalBus->BUS_ACKMASK32;
 800235a:	46b4      	mov	ip, r6
 800235c:	43b2      	bics	r2, r6
	temp |= thisInternalBus->BUS_ACKMODER;
 800235e:	6b46      	ldr	r6, [r0, #52]	; 0x34
 8002360:	4332      	orrs	r2, r6
	thisInternalBus->bus_ack->MODER = temp;
 8002362:	602a      	str	r2, [r5, #0]
	thisInternalBus->bus_ack->BSRR = (uint32_t) thisInternalBus->bus_ack_mask;
 8002364:	8d82      	ldrh	r2, [r0, #44]	; 0x2c
 8002366:	61aa      	str	r2, [r5, #24]
 8002368:	4690      	mov	r8, r2
	thisInternalBus->bus_clk->BSRR = thisInternalBus->bus_clk_mask;thisInternalBus->bus->BSRR = buffer[buf_cnt++];thisInternalBus->bus_clk->BRR = thisInternalBus->bus_clk_mask;
 800236a:	8b02      	ldrh	r2, [r0, #24]
 800236c:	619a      	str	r2, [r3, #24]
 800236e:	680e      	ldr	r6, [r1, #0]
 8002370:	61a6      	str	r6, [r4, #24]
 8002372:	629a      	str	r2, [r3, #40]	; 0x28
	thisInternalBus->bus_clk->BSRR = thisInternalBus->bus_clk_mask;thisInternalBus->bus->BSRR = buffer[buf_cnt++];thisInternalBus->bus_clk->BRR = thisInternalBus->bus_clk_mask;
 8002374:	619a      	str	r2, [r3, #24]
 8002376:	684e      	ldr	r6, [r1, #4]
 8002378:	61a6      	str	r6, [r4, #24]
 800237a:	629a      	str	r2, [r3, #40]	; 0x28
	thisInternalBus->bus_clk->BSRR = thisInternalBus->bus_clk_mask;thisInternalBus->bus->BSRR = buffer[buf_cnt++];thisInternalBus->bus_clk->BRR = thisInternalBus->bus_clk_mask;
 800237c:	619a      	str	r2, [r3, #24]
 800237e:	688e      	ldr	r6, [r1, #8]
 8002380:	61a6      	str	r6, [r4, #24]
 8002382:	629a      	str	r2, [r3, #40]	; 0x28
	thisInternalBus->bus_clk->BSRR = thisInternalBus->bus_clk_mask;thisInternalBus->bus->BSRR = buffer[buf_cnt++];thisInternalBus->bus_clk->BRR = thisInternalBus->bus_clk_mask;
 8002384:	619a      	str	r2, [r3, #24]
 8002386:	68ce      	ldr	r6, [r1, #12]
 8002388:	61a6      	str	r6, [r4, #24]
 800238a:	629a      	str	r2, [r3, #40]	; 0x28
	thisInternalBus->bus_clk->BSRR = thisInternalBus->bus_clk_mask;thisInternalBus->bus->BSRR = buffer[buf_cnt++];thisInternalBus->bus_clk->BRR = thisInternalBus->bus_clk_mask;
 800238c:	619a      	str	r2, [r3, #24]
 800238e:	690e      	ldr	r6, [r1, #16]
 8002390:	61a6      	str	r6, [r4, #24]
 8002392:	629a      	str	r2, [r3, #40]	; 0x28
	thisInternalBus->bus_clk->BSRR = thisInternalBus->bus_clk_mask;thisInternalBus->bus->BSRR = buffer[buf_cnt++];thisInternalBus->bus_clk->BRR = thisInternalBus->bus_clk_mask;
 8002394:	619a      	str	r2, [r3, #24]
 8002396:	694e      	ldr	r6, [r1, #20]
 8002398:	61a6      	str	r6, [r4, #24]
 800239a:	629a      	str	r2, [r3, #40]	; 0x28
	thisInternalBus->bus_clk->BSRR = thisInternalBus->bus_clk_mask;thisInternalBus->bus->BSRR = buffer[buf_cnt++];thisInternalBus->bus_clk->BRR = thisInternalBus->bus_clk_mask;
 800239c:	619a      	str	r2, [r3, #24]
 800239e:	698e      	ldr	r6, [r1, #24]
 80023a0:	61a6      	str	r6, [r4, #24]
 80023a2:	629a      	str	r2, [r3, #40]	; 0x28
	thisInternalBus->bus_clk->BSRR = thisInternalBus->bus_clk_mask;thisInternalBus->bus->BSRR = buffer[buf_cnt++];thisInternalBus->bus_clk->BRR = thisInternalBus->bus_clk_mask;
 80023a4:	619a      	str	r2, [r3, #24]
 80023a6:	69ce      	ldr	r6, [r1, #28]
 80023a8:	61a6      	str	r6, [r4, #24]
 80023aa:	629a      	str	r2, [r3, #40]	; 0x28
	thisInternalBus->bus_clk->BSRR = thisInternalBus->bus_clk_mask;thisInternalBus->bus->BSRR = buffer[buf_cnt++];thisInternalBus->bus_clk->BRR = thisInternalBus->bus_clk_mask;
 80023ac:	619a      	str	r2, [r3, #24]
 80023ae:	6a0e      	ldr	r6, [r1, #32]
 80023b0:	61a6      	str	r6, [r4, #24]
 80023b2:	629a      	str	r2, [r3, #40]	; 0x28
	thisInternalBus->bus_clk->BSRR = thisInternalBus->bus_clk_mask;thisInternalBus->bus->BSRR = buffer[buf_cnt++];thisInternalBus->bus_clk->BRR = thisInternalBus->bus_clk_mask;
 80023b4:	619a      	str	r2, [r3, #24]
 80023b6:	6a4e      	ldr	r6, [r1, #36]	; 0x24
 80023b8:	61a6      	str	r6, [r4, #24]
 80023ba:	629a      	str	r2, [r3, #40]	; 0x28
	thisInternalBus->bus_clk->BSRR = thisInternalBus->bus_clk_mask;thisInternalBus->bus->BSRR = buffer[buf_cnt++];thisInternalBus->bus_clk->BRR = thisInternalBus->bus_clk_mask;
 80023bc:	619a      	str	r2, [r3, #24]
 80023be:	6a8e      	ldr	r6, [r1, #40]	; 0x28
 80023c0:	61a6      	str	r6, [r4, #24]
 80023c2:	629a      	str	r2, [r3, #40]	; 0x28
	thisInternalBus->bus_clk->BSRR = thisInternalBus->bus_clk_mask;thisInternalBus->bus->BSRR = buffer[buf_cnt++];thisInternalBus->bus_clk->BRR = thisInternalBus->bus_clk_mask;
 80023c4:	619a      	str	r2, [r3, #24]
 80023c6:	6ace      	ldr	r6, [r1, #44]	; 0x2c
 80023c8:	61a6      	str	r6, [r4, #24]
 80023ca:	629a      	str	r2, [r3, #40]	; 0x28
	thisInternalBus->bus_clk->BSRR = thisInternalBus->bus_clk_mask;thisInternalBus->bus->BSRR = buffer[buf_cnt++];thisInternalBus->bus_clk->BRR = thisInternalBus->bus_clk_mask;
 80023cc:	619a      	str	r2, [r3, #24]
 80023ce:	6b0e      	ldr	r6, [r1, #48]	; 0x30
 80023d0:	61a6      	str	r6, [r4, #24]
 80023d2:	629a      	str	r2, [r3, #40]	; 0x28
	thisInternalBus->bus_clk->BSRR = thisInternalBus->bus_clk_mask;thisInternalBus->bus->BSRR = buffer[buf_cnt++];thisInternalBus->bus_clk->BRR = thisInternalBus->bus_clk_mask;
 80023d4:	619a      	str	r2, [r3, #24]
 80023d6:	6b4e      	ldr	r6, [r1, #52]	; 0x34
 80023d8:	61a6      	str	r6, [r4, #24]
 80023da:	629a      	str	r2, [r3, #40]	; 0x28
	thisInternalBus->bus_clk->BSRR = thisInternalBus->bus_clk_mask;thisInternalBus->bus->BSRR = buffer[buf_cnt++];thisInternalBus->bus_clk->BRR = thisInternalBus->bus_clk_mask;
 80023dc:	619a      	str	r2, [r3, #24]
 80023de:	6b8e      	ldr	r6, [r1, #56]	; 0x38
 80023e0:	61a6      	str	r6, [r4, #24]
 80023e2:	629a      	str	r2, [r3, #40]	; 0x28
	thisInternalBus->bus_clk->BSRR = thisInternalBus->bus_clk_mask;thisInternalBus->bus->BSRR = buffer[buf_cnt++];thisInternalBus->bus_clk->BRR = thisInternalBus->bus_clk_mask;
 80023e4:	619a      	str	r2, [r3, #24]
 80023e6:	6bce      	ldr	r6, [r1, #60]	; 0x3c
 80023e8:	61a6      	str	r6, [r4, #24]
 80023ea:	629a      	str	r2, [r3, #40]	; 0x28
	thisInternalBus->bus_clk->BSRR = thisInternalBus->bus_clk_mask;thisInternalBus->bus->BSRR = buffer[buf_cnt++];thisInternalBus->bus_clk->BRR = thisInternalBus->bus_clk_mask;
 80023ec:	619a      	str	r2, [r3, #24]
 80023ee:	6c0e      	ldr	r6, [r1, #64]	; 0x40
 80023f0:	61a6      	str	r6, [r4, #24]
 80023f2:	629a      	str	r2, [r3, #40]	; 0x28
	thisInternalBus->bus_clk->BSRR = thisInternalBus->bus_clk_mask;thisInternalBus->bus->BSRR = buffer[buf_cnt++];thisInternalBus->bus_clk->BRR = thisInternalBus->bus_clk_mask;
 80023f4:	619a      	str	r2, [r3, #24]
 80023f6:	6c4e      	ldr	r6, [r1, #68]	; 0x44
 80023f8:	61a6      	str	r6, [r4, #24]
 80023fa:	629a      	str	r2, [r3, #40]	; 0x28
	thisInternalBus->bus_clk->BSRR = thisInternalBus->bus_clk_mask;thisInternalBus->bus->BSRR = buffer[buf_cnt++];thisInternalBus->bus_clk->BRR = thisInternalBus->bus_clk_mask;
 80023fc:	619a      	str	r2, [r3, #24]
 80023fe:	6c8e      	ldr	r6, [r1, #72]	; 0x48
 8002400:	61a6      	str	r6, [r4, #24]
 8002402:	629a      	str	r2, [r3, #40]	; 0x28
	thisInternalBus->bus_clk->BSRR = thisInternalBus->bus_clk_mask;thisInternalBus->bus->BSRR = buffer[buf_cnt++];thisInternalBus->bus_clk->BRR = thisInternalBus->bus_clk_mask;
 8002404:	619a      	str	r2, [r3, #24]
 8002406:	6cce      	ldr	r6, [r1, #76]	; 0x4c
 8002408:	61a6      	str	r6, [r4, #24]
 800240a:	629a      	str	r2, [r3, #40]	; 0x28
	thisInternalBus->bus_clk->BSRR = thisInternalBus->bus_clk_mask;thisInternalBus->bus->BSRR = buffer[buf_cnt++];thisInternalBus->bus_clk->BRR = thisInternalBus->bus_clk_mask;
 800240c:	619a      	str	r2, [r3, #24]
 800240e:	6d0e      	ldr	r6, [r1, #80]	; 0x50
 8002410:	61a6      	str	r6, [r4, #24]
 8002412:	629a      	str	r2, [r3, #40]	; 0x28
	thisInternalBus->bus_clk->BSRR = thisInternalBus->bus_clk_mask;thisInternalBus->bus->BSRR = buffer[buf_cnt++];thisInternalBus->bus_clk->BRR = thisInternalBus->bus_clk_mask;
 8002414:	619a      	str	r2, [r3, #24]
 8002416:	6d4e      	ldr	r6, [r1, #84]	; 0x54
 8002418:	61a6      	str	r6, [r4, #24]
 800241a:	629a      	str	r2, [r3, #40]	; 0x28
	thisInternalBus->bus_clk->BSRR = thisInternalBus->bus_clk_mask;thisInternalBus->bus->BSRR = buffer[buf_cnt++];thisInternalBus->bus_clk->BRR = thisInternalBus->bus_clk_mask;
 800241c:	619a      	str	r2, [r3, #24]
 800241e:	6d8e      	ldr	r6, [r1, #88]	; 0x58
 8002420:	61a6      	str	r6, [r4, #24]
 8002422:	629a      	str	r2, [r3, #40]	; 0x28
	thisInternalBus->bus_clk->BSRR = thisInternalBus->bus_clk_mask;thisInternalBus->bus->BSRR = buffer[buf_cnt++];thisInternalBus->bus_clk->BRR = thisInternalBus->bus_clk_mask;
 8002424:	619a      	str	r2, [r3, #24]
 8002426:	6dce      	ldr	r6, [r1, #92]	; 0x5c
 8002428:	61a6      	str	r6, [r4, #24]
 800242a:	629a      	str	r2, [r3, #40]	; 0x28
	thisInternalBus->bus_clk->BSRR = thisInternalBus->bus_clk_mask;thisInternalBus->bus->BSRR = buffer[buf_cnt++];thisInternalBus->bus_clk->BRR = thisInternalBus->bus_clk_mask;
 800242c:	619a      	str	r2, [r3, #24]
 800242e:	6e0e      	ldr	r6, [r1, #96]	; 0x60
 8002430:	61a6      	str	r6, [r4, #24]
 8002432:	629a      	str	r2, [r3, #40]	; 0x28
	thisInternalBus->bus_clk->BSRR = thisInternalBus->bus_clk_mask;thisInternalBus->bus->BSRR = buffer[buf_cnt++];thisInternalBus->bus_clk->BRR = thisInternalBus->bus_clk_mask;
 8002434:	619a      	str	r2, [r3, #24]
 8002436:	6e4e      	ldr	r6, [r1, #100]	; 0x64
 8002438:	61a6      	str	r6, [r4, #24]
 800243a:	629a      	str	r2, [r3, #40]	; 0x28
	thisInternalBus->bus_clk->BSRR = thisInternalBus->bus_clk_mask;thisInternalBus->bus->BSRR = buffer[buf_cnt++];thisInternalBus->bus_clk->BRR = thisInternalBus->bus_clk_mask;
 800243c:	619a      	str	r2, [r3, #24]
 800243e:	6e8e      	ldr	r6, [r1, #104]	; 0x68
 8002440:	61a6      	str	r6, [r4, #24]
 8002442:	629a      	str	r2, [r3, #40]	; 0x28
	thisInternalBus->bus_clk->BSRR = thisInternalBus->bus_clk_mask;thisInternalBus->bus->BSRR = buffer[buf_cnt++];thisInternalBus->bus_clk->BRR = thisInternalBus->bus_clk_mask;
 8002444:	619a      	str	r2, [r3, #24]
 8002446:	6ece      	ldr	r6, [r1, #108]	; 0x6c
 8002448:	61a6      	str	r6, [r4, #24]
 800244a:	629a      	str	r2, [r3, #40]	; 0x28
	thisInternalBus->bus_clk->BSRR = thisInternalBus->bus_clk_mask;thisInternalBus->bus->BSRR = buffer[buf_cnt++];thisInternalBus->bus_clk->BRR = thisInternalBus->bus_clk_mask;
 800244c:	619a      	str	r2, [r3, #24]
 800244e:	6f0e      	ldr	r6, [r1, #112]	; 0x70
 8002450:	61a6      	str	r6, [r4, #24]
 8002452:	629a      	str	r2, [r3, #40]	; 0x28
	thisInternalBus->bus_clk->BSRR = thisInternalBus->bus_clk_mask;thisInternalBus->bus->BSRR = buffer[buf_cnt++];thisInternalBus->bus_clk->BRR = thisInternalBus->bus_clk_mask;
 8002454:	619a      	str	r2, [r3, #24]
 8002456:	6f4e      	ldr	r6, [r1, #116]	; 0x74
 8002458:	61a6      	str	r6, [r4, #24]
 800245a:	629a      	str	r2, [r3, #40]	; 0x28
	thisInternalBus->bus_clk->BSRR = thisInternalBus->bus_clk_mask;thisInternalBus->bus->BSRR = buffer[buf_cnt++];thisInternalBus->bus_clk->BRR = thisInternalBus->bus_clk_mask;
 800245c:	619a      	str	r2, [r3, #24]
 800245e:	6f8e      	ldr	r6, [r1, #120]	; 0x78
 8002460:	61a6      	str	r6, [r4, #24]
 8002462:	629a      	str	r2, [r3, #40]	; 0x28
	thisInternalBus->bus_clk->BSRR = thisInternalBus->bus_clk_mask;thisInternalBus->bus->BSRR = buffer[buf_cnt++];thisInternalBus->bus_clk->BRR = thisInternalBus->bus_clk_mask;
 8002464:	619a      	str	r2, [r3, #24]
 8002466:	6fce      	ldr	r6, [r1, #124]	; 0x7c
 8002468:	61a6      	str	r6, [r4, #24]
	thisInternalBus->bus_clk->BSRR = thisInternalBus->bus_clk_mask;thisInternalBus->bus->BSRR = buffer[buf_cnt++];thisInternalBus->bus_clk->BRR = thisInternalBus->bus_clk_mask;
 800246a:	2680      	movs	r6, #128	; 0x80
	thisInternalBus->bus_clk->BSRR = thisInternalBus->bus_clk_mask;thisInternalBus->bus->BSRR = buffer[buf_cnt++];thisInternalBus->bus_clk->BRR = thisInternalBus->bus_clk_mask;
 800246c:	629a      	str	r2, [r3, #40]	; 0x28
	thisInternalBus->bus_clk->BSRR = thisInternalBus->bus_clk_mask;thisInternalBus->bus->BSRR = buffer[buf_cnt++];thisInternalBus->bus_clk->BRR = thisInternalBus->bus_clk_mask;
 800246e:	619a      	str	r2, [r3, #24]
 8002470:	5989      	ldr	r1, [r1, r6]
 8002472:	61a1      	str	r1, [r4, #24]
 8002474:	629a      	str	r2, [r3, #40]	; 0x28
	thisInternalBus->bus->BRR = thisInternalBus->bus_mask;
 8002476:	8882      	ldrh	r2, [r0, #4]
	temp &= ~thisInternalBus->BUS_CLKMASK32;
 8002478:	4651      	mov	r1, sl
	thisInternalBus->bus->BRR = thisInternalBus->bus_mask;
 800247a:	62a2      	str	r2, [r4, #40]	; 0x28
	thisInternalBus->bus_ack->BRR = thisInternalBus->bus_ack_mask;
 800247c:	4642      	mov	r2, r8
 800247e:	62aa      	str	r2, [r5, #40]	; 0x28
	temp = thisInternalBus->bus->MODER;
 8002480:	6822      	ldr	r2, [r4, #0]
	temp &= ~thisInternalBus->BUS_BUSMASK32;
 8002482:	43ba      	bics	r2, r7
	thisInternalBus->bus->MODER = temp;
 8002484:	6022      	str	r2, [r4, #0]
	temp = thisInternalBus->bus_clk->MODER;
 8002486:	681a      	ldr	r2, [r3, #0]
	temp &= ~thisInternalBus->BUS_CLKMASK32;
 8002488:	438a      	bics	r2, r1
	thisInternalBus->bus_clk->MODER = temp;
 800248a:	601a      	str	r2, [r3, #0]
	temp &= ~thisInternalBus->BUS_ACKMASK32;
 800248c:	4662      	mov	r2, ip
	temp = thisInternalBus->bus_ack->MODER;
 800248e:	682b      	ldr	r3, [r5, #0]
	temp &= ~thisInternalBus->BUS_ACKMASK32;
 8002490:	4393      	bics	r3, r2
	thisInternalBus->bus_ack->MODER = temp;
 8002492:	602b      	str	r3, [r5, #0]
}
 8002494:	bce0      	pop	{r5, r6, r7}
 8002496:	46ba      	mov	sl, r7
 8002498:	46b1      	mov	r9, r6
 800249a:	46a8      	mov	r8, r5
 800249c:	bdf0      	pop	{r4, r5, r6, r7, pc}
 800249e:	46c0      	nop			; (mov r8, r8)

080024a0 <global_timer_create>:
#include <stdlib.h>
extern TIM_HandleTypeDef htim21;


GlobalTimer_t * global_timer_create(TIM_HandleTypeDef *timer_id)
{
 80024a0:	b570      	push	{r4, r5, r6, lr}
 80024a2:	0005      	movs	r5, r0
	//Start global timer and initialize struct
	GlobalTimer_t *thisGlobalTimer = malloc(sizeof(GlobalTimer_t));
 80024a4:	2008      	movs	r0, #8
 80024a6:	f000 fe29 	bl	80030fc <malloc>
 80024aa:	0004      	movs	r4, r0
	thisGlobalTimer->h_timer = timer_id;
 80024ac:	6045      	str	r5, [r0, #4]
	HAL_TIM_Base_Start_IT(thisGlobalTimer->h_timer);
 80024ae:	0028      	movs	r0, r5
 80024b0:	f7ff fce4 	bl	8001e7c <HAL_TIM_Base_Start_IT>
	thisGlobalTimer->overflow_counter = 0;
 80024b4:	2300      	movs	r3, #0
	return thisGlobalTimer;
}
 80024b6:	0020      	movs	r0, r4
	thisGlobalTimer->overflow_counter = 0;
 80024b8:	7023      	strb	r3, [r4, #0]
}
 80024ba:	bd70      	pop	{r4, r5, r6, pc}

080024bc <get_global_timer>:


uint64_t get_global_timer(GlobalTimer_t *thisGlobalTimer)
{
 80024bc:	0003      	movs	r3, r0
	uint8_t overflow_count_begin;
	uint64_t tot_value;
	do
	{
		overflow_count_begin = thisGlobalTimer->overflow_counter;
		tot_value = thisGlobalTimer->h_timer->Instance->CNT + thisGlobalTimer->h_timer->Instance->ARR * (thisGlobalTimer->overflow_counter);
 80024be:	6842      	ldr	r2, [r0, #4]
 80024c0:	781b      	ldrb	r3, [r3, #0]
 80024c2:	6812      	ldr	r2, [r2, #0]
 80024c4:	6a51      	ldr	r1, [r2, #36]	; 0x24
 80024c6:	6ad0      	ldr	r0, [r2, #44]	; 0x2c
 80024c8:	4358      	muls	r0, r3
 80024ca:	1840      	adds	r0, r0, r1

	} while (overflow_count_begin != thisGlobalTimer->overflow_counter);

	return tot_value;	//TODO there is a lot of potential timestamp synchronization issues here, need to be addressed
}
 80024cc:	2100      	movs	r1, #0
 80024ce:	4770      	bx	lr

080024d0 <magnetometer_create>:
//!since different sensors may have different type and number of variables
//!1 - sensor type  depend to the sensor type
//!2 - data tranmitter handler in this implimentation we just limited that to SPI in future if we add I2C or analog sensor ADC line can passs as a parameter
//!--------------------------create a new magnotmemeter of any type lower layer support and make a interface and initilize that-----------------------------------
Magnetometer_t * magnetometer_create(uint8_t type,SPI_HandleTypeDef *spi_line,GPIO_TypeDef *CS_Bus,uint16_t CS_Pin,GPIO_TypeDef *INT_Bus,uint16_t INT_Pin)
{
 80024d0:	b5f0      	push	{r4, r5, r6, r7, lr}
 80024d2:	46d6      	mov	lr, sl
 80024d4:	464f      	mov	r7, r9
 80024d6:	4646      	mov	r6, r8
 80024d8:	b5c0      	push	{r6, r7, lr}
 80024da:	b082      	sub	sp, #8
 80024dc:	0005      	movs	r5, r0
 80024de:	a80a      	add	r0, sp, #40	; 0x28
 80024e0:	001f      	movs	r7, r3
 80024e2:	c808      	ldmia	r0!, {r3}
 80024e4:	000e      	movs	r6, r1
 80024e6:	4699      	mov	r9, r3
 80024e8:	8803      	ldrh	r3, [r0, #0]
	Magnetometer_t *  thisMagnetometer = malloc(sizeof(Magnetometer_t));
 80024ea:	2019      	movs	r0, #25
{
 80024ec:	4690      	mov	r8, r2
 80024ee:	469a      	mov	sl, r3
	Magnetometer_t *  thisMagnetometer = malloc(sizeof(Magnetometer_t));
 80024f0:	f000 fe04 	bl	80030fc <malloc>
 80024f4:	1e04      	subs	r4, r0, #0
	if(thisMagnetometer != NULL)
 80024f6:	d004      	beq.n	8002502 <magnetometer_create+0x32>
	{
		thisMagnetometer->whichMagnetometer = type;
 80024f8:	7005      	strb	r5, [r0, #0]
		switch (thisMagnetometer->whichMagnetometer)
 80024fa:	2d0a      	cmp	r5, #10
 80024fc:	d032      	beq.n	8002564 <magnetometer_create+0x94>
 80024fe:	2d14      	cmp	r5, #20
 8002500:	d006      	beq.n	8002510 <magnetometer_create+0x40>
			}
		break;
		}
	}
	return(thisMagnetometer);
}
 8002502:	0020      	movs	r0, r4
 8002504:	b002      	add	sp, #8
 8002506:	bce0      	pop	{r5, r6, r7}
 8002508:	46ba      	mov	sl, r7
 800250a:	46b1      	mov	r9, r6
 800250c:	46a8      	mov	r8, r5
 800250e:	bdf0      	pop	{r4, r5, r6, r7, pc}
				thisMagnetometer->magnetometer = (MMC5983_t*)MMC5983_create(spi_line,CS_Bus,CS_Pin,INT_Bus,INT_Pin);
 8002510:	4653      	mov	r3, sl
 8002512:	003a      	movs	r2, r7
 8002514:	9300      	str	r3, [sp, #0]
 8002516:	4641      	mov	r1, r8
 8002518:	464b      	mov	r3, r9
 800251a:	0030      	movs	r0, r6
 800251c:	f000 f980 	bl	8002820 <MMC5983_create>
 8002520:	0a02      	lsrs	r2, r0, #8
 8002522:	70a2      	strb	r2, [r4, #2]
 8002524:	0202      	lsls	r2, r0, #8
 8002526:	0e12      	lsrs	r2, r2, #24
 8002528:	70e2      	strb	r2, [r4, #3]
 800252a:	0e02      	lsrs	r2, r0, #24
 800252c:	7060      	strb	r0, [r4, #1]
 800252e:	7122      	strb	r2, [r4, #4]
				if(thisMagnetometer->magnetometer != NULL)
 8002530:	2800      	cmp	r0, #0
 8002532:	d0e6      	beq.n	8002502 <magnetometer_create+0x32>
					thisMagnetometer->sampleRate = MAGNETOMETER_DEFAULT_SAMPLE_RATE;
 8002534:	2364      	movs	r3, #100	; 0x64
 8002536:	82a3      	strh	r3, [r4, #20]
					thisMagnetometer->time_stamp = 0;
 8002538:	2300      	movs	r3, #0
 800253a:	72e3      	strb	r3, [r4, #11]
 800253c:	7323      	strb	r3, [r4, #12]
 800253e:	7363      	strb	r3, [r4, #13]
 8002540:	73a3      	strb	r3, [r4, #14]
 8002542:	73e3      	strb	r3, [r4, #15]
 8002544:	7423      	strb	r3, [r4, #16]
 8002546:	7463      	strb	r3, [r4, #17]
 8002548:	74a3      	strb	r3, [r4, #18]
					thisMagnetometer->Readings[X_AX] = 0;
 800254a:	7163      	strb	r3, [r4, #5]
 800254c:	71a3      	strb	r3, [r4, #6]
					thisMagnetometer->Readings[Y_AX] = 0;
 800254e:	71e3      	strb	r3, [r4, #7]
 8002550:	7223      	strb	r3, [r4, #8]
					thisMagnetometer->Readings[Z_AX] = 0;
 8002552:	7263      	strb	r3, [r4, #9]
 8002554:	72a3      	strb	r3, [r4, #10]
					thisMagnetometer->sensor_status = ( MMC5983_get_status(thisMagnetometer->magnetometer) ? MAGNETOMETER_OK : MAGNETOMETER_FAULTY);
 8002556:	f000 fb07 	bl	8002b68 <MMC5983_get_status>
 800255a:	1e43      	subs	r3, r0, #1
 800255c:	4198      	sbcs	r0, r3
 800255e:	3050      	adds	r0, #80	; 0x50
 8002560:	7620      	strb	r0, [r4, #24]
	return(thisMagnetometer);
 8002562:	e7ce      	b.n	8002502 <magnetometer_create+0x32>
				thisMagnetometer->magnetometer = (LIS3MDL_t*)LIS3MDL_create(spi_line,CS_Bus,CS_Pin,INT_Bus,INT_Pin);
 8002564:	4653      	mov	r3, sl
 8002566:	003a      	movs	r2, r7
 8002568:	9300      	str	r3, [sp, #0]
 800256a:	4641      	mov	r1, r8
 800256c:	464b      	mov	r3, r9
 800256e:	0030      	movs	r0, r6
 8002570:	f000 f882 	bl	8002678 <LIS3MDL_create>
 8002574:	0a02      	lsrs	r2, r0, #8
 8002576:	70a2      	strb	r2, [r4, #2]
 8002578:	0202      	lsls	r2, r0, #8
 800257a:	0e12      	lsrs	r2, r2, #24
 800257c:	70e2      	strb	r2, [r4, #3]
 800257e:	0e02      	lsrs	r2, r0, #24
 8002580:	7060      	strb	r0, [r4, #1]
 8002582:	7122      	strb	r2, [r4, #4]
				if(thisMagnetometer->magnetometer != NULL)
 8002584:	2800      	cmp	r0, #0
 8002586:	d0bc      	beq.n	8002502 <magnetometer_create+0x32>
					thisMagnetometer->sampleRate = MAGNETOMETER_DEFAULT_SAMPLE_RATE;
 8002588:	2364      	movs	r3, #100	; 0x64
 800258a:	82a3      	strh	r3, [r4, #20]
					thisMagnetometer->time_stamp = 0;
 800258c:	2300      	movs	r3, #0
 800258e:	72e3      	strb	r3, [r4, #11]
 8002590:	7323      	strb	r3, [r4, #12]
 8002592:	7363      	strb	r3, [r4, #13]
 8002594:	73a3      	strb	r3, [r4, #14]
 8002596:	73e3      	strb	r3, [r4, #15]
 8002598:	7423      	strb	r3, [r4, #16]
 800259a:	7463      	strb	r3, [r4, #17]
 800259c:	74a3      	strb	r3, [r4, #18]
					thisMagnetometer->Readings[X_AX] = 0;
 800259e:	7163      	strb	r3, [r4, #5]
 80025a0:	71a3      	strb	r3, [r4, #6]
					thisMagnetometer->Readings[Y_AX] = 0;
 80025a2:	71e3      	strb	r3, [r4, #7]
 80025a4:	7223      	strb	r3, [r4, #8]
					thisMagnetometer->Readings[Z_AX] = 0;
 80025a6:	7263      	strb	r3, [r4, #9]
 80025a8:	72a3      	strb	r3, [r4, #10]
 80025aa:	e7aa      	b.n	8002502 <magnetometer_create+0x32>

080025ac <magnetometer_read>:
//----------------regardless of magnetometer type this methode is our interface between higher layer and driver layer---------------------------------------
//--------------- by calling this methode we will have fresh data provided by low level layer driver ready to use --------------------------
uint8_t magnetometer_read(Magnetometer_t *thisMagnetometer)
{
	uint8_t res=0;
	switch (thisMagnetometer->whichMagnetometer)
 80025ac:	7803      	ldrb	r3, [r0, #0]
{
 80025ae:	b510      	push	{r4, lr}
	switch (thisMagnetometer->whichMagnetometer)
 80025b0:	2b0a      	cmp	r3, #10
 80025b2:	d011      	beq.n	80025d8 <magnetometer_read+0x2c>
 80025b4:	2b14      	cmp	r3, #20
 80025b6:	d10d      	bne.n	80025d4 <magnetometer_read+0x28>
	case MAGNETOMETER_TYPE_LIS3MDL:
		res = LIS3MDL_read_XYZ((LIS3MDL_t*)thisMagnetometer->magnetometer,thisMagnetometer->Readings);
		break;
	//------------------------------
	case MAGNETOMETER_TYPE_MMC5983:
		res = MMC5983_read_XYZ((MMC5983_t*)thisMagnetometer->magnetometer, (uint8_t*)thisMagnetometer->Readings);
 80025b8:	7883      	ldrb	r3, [r0, #2]
 80025ba:	7842      	ldrb	r2, [r0, #1]
 80025bc:	021b      	lsls	r3, r3, #8
 80025be:	431a      	orrs	r2, r3
 80025c0:	78c3      	ldrb	r3, [r0, #3]
 80025c2:	1d41      	adds	r1, r0, #5
 80025c4:	7900      	ldrb	r0, [r0, #4]
 80025c6:	041b      	lsls	r3, r3, #16
 80025c8:	4313      	orrs	r3, r2
 80025ca:	0600      	lsls	r0, r0, #24
 80025cc:	4318      	orrs	r0, r3
 80025ce:	f000 fa0d 	bl	80029ec <MMC5983_read_XYZ>
		break;
	}
	return res;
}
 80025d2:	bd10      	pop	{r4, pc}
	switch (thisMagnetometer->whichMagnetometer)
 80025d4:	2000      	movs	r0, #0
 80025d6:	e7fc      	b.n	80025d2 <magnetometer_read+0x26>
		res = LIS3MDL_read_XYZ((LIS3MDL_t*)thisMagnetometer->magnetometer,thisMagnetometer->Readings);
 80025d8:	7883      	ldrb	r3, [r0, #2]
 80025da:	7842      	ldrb	r2, [r0, #1]
 80025dc:	021b      	lsls	r3, r3, #8
 80025de:	431a      	orrs	r2, r3
 80025e0:	78c3      	ldrb	r3, [r0, #3]
 80025e2:	1d41      	adds	r1, r0, #5
 80025e4:	7900      	ldrb	r0, [r0, #4]
 80025e6:	041b      	lsls	r3, r3, #16
 80025e8:	4313      	orrs	r3, r2
 80025ea:	0600      	lsls	r0, r0, #24
 80025ec:	4318      	orrs	r0, r3
 80025ee:	f000 f915 	bl	800281c <LIS3MDL_read_XYZ>
		break;
 80025f2:	e7ee      	b.n	80025d2 <magnetometer_read+0x26>

080025f4 <magnetometer_direct_register_write>:
//---------------------------------------------------------------------------
uint8_t magnetometer_direct_register_write(Magnetometer_t *thisMagnetometer, uint8_t sensor_reg_add, uint8_t sensor_reg_val)
{
	uint8_t res=0;
	switch (thisMagnetometer->whichMagnetometer)
 80025f4:	7803      	ldrb	r3, [r0, #0]
{
 80025f6:	b510      	push	{r4, lr}
	switch (thisMagnetometer->whichMagnetometer)
 80025f8:	2b0a      	cmp	r3, #10
 80025fa:	d00f      	beq.n	800261c <magnetometer_direct_register_write+0x28>
 80025fc:	2b14      	cmp	r3, #20
 80025fe:	d10b      	bne.n	8002618 <magnetometer_direct_register_write+0x24>
	case MAGNETOMETER_TYPE_LIS3MDL:
		LIS3MDL_register_write((LIS3MDL_t*)thisMagnetometer->magnetometer, sensor_reg_add, sensor_reg_val);
		break;
	//------------------------------
	case MAGNETOMETER_TYPE_MMC5983:
		MMC5983_register_write((MMC5983_t*)thisMagnetometer->magnetometer, sensor_reg_add, sensor_reg_val);
 8002600:	7883      	ldrb	r3, [r0, #2]
 8002602:	7844      	ldrb	r4, [r0, #1]
 8002604:	021b      	lsls	r3, r3, #8
 8002606:	431c      	orrs	r4, r3
 8002608:	78c3      	ldrb	r3, [r0, #3]
 800260a:	7900      	ldrb	r0, [r0, #4]
 800260c:	041b      	lsls	r3, r3, #16
 800260e:	4323      	orrs	r3, r4
 8002610:	0600      	lsls	r0, r0, #24
 8002612:	4318      	orrs	r0, r3
 8002614:	f000 f9d2 	bl	80029bc <MMC5983_register_write>
		break;
	}
	return res;
}
 8002618:	2000      	movs	r0, #0
 800261a:	bd10      	pop	{r4, pc}
		LIS3MDL_register_write((LIS3MDL_t*)thisMagnetometer->magnetometer, sensor_reg_add, sensor_reg_val);
 800261c:	7883      	ldrb	r3, [r0, #2]
 800261e:	7844      	ldrb	r4, [r0, #1]
 8002620:	021b      	lsls	r3, r3, #8
 8002622:	431c      	orrs	r4, r3
 8002624:	78c3      	ldrb	r3, [r0, #3]
 8002626:	7900      	ldrb	r0, [r0, #4]
 8002628:	041b      	lsls	r3, r3, #16
 800262a:	4323      	orrs	r3, r4
 800262c:	0600      	lsls	r0, r0, #24
 800262e:	4318      	orrs	r0, r3
 8002630:	f000 f8dc 	bl	80027ec <LIS3MDL_register_write>
		break;
 8002634:	e7f0      	b.n	8002618 <magnetometer_direct_register_write+0x24>
 8002636:	46c0      	nop			; (mov r8, r8)

08002638 <I2C_interface_create>:
#include "i2c_network_interface.h"


I2C_t * I2C_interface_create(I2C_HandleTypeDef *I2C_handle,uint8_t channel_address)
{
 8002638:	b570      	push	{r4, r5, r6, lr}
 800263a:	0005      	movs	r5, r0
	I2C_t * thisI2C = (I2C_t *) malloc(sizeof(I2C_t));
 800263c:	200c      	movs	r0, #12
{
 800263e:	000c      	movs	r4, r1
	I2C_t * thisI2C = (I2C_t *) malloc(sizeof(I2C_t));
 8002640:	f000 fd5c 	bl	80030fc <malloc>
	if(thisI2C != NULL)
 8002644:	2800      	cmp	r0, #0
 8002646:	d014      	beq.n	8002672 <I2C_interface_create+0x3a>
	{
		thisI2C->I2C_line = I2C_handle;
		thisI2C->buffer_index=0;
 8002648:	2300      	movs	r3, #0
 800264a:	7003      	strb	r3, [r0, #0]
		thisI2C->new_command_is_ready_flag = 0;
 800264c:	7043      	strb	r3, [r0, #1]

		// Disable Own Address1 before setting the new address configuration
		//TODO it is much safer to use HAL compatible address change instead of manual mode
		//is ther any reason for using manual mode?
		thisI2C->I2C_line->Instance->OAR1 &= ~I2C_OAR1_OA1EN;
 800264e:	682b      	ldr	r3, [r5, #0]
		thisI2C->I2C_line = I2C_handle;
 8002650:	6085      	str	r5, [r0, #8]
		thisI2C->I2C_line->Instance->OAR1 &= ~I2C_OAR1_OA1EN;
 8002652:	6899      	ldr	r1, [r3, #8]
 8002654:	4d07      	ldr	r5, [pc, #28]	; (8002674 <I2C_interface_create+0x3c>)
		thisI2C->I2C_line->Instance->OAR1 = (I2C_OAR1_OA1EN | ( channel_address << 1) );
 8002656:	0064      	lsls	r4, r4, #1
		thisI2C->I2C_line->Instance->OAR1 &= ~I2C_OAR1_OA1EN;
 8002658:	4029      	ands	r1, r5
 800265a:	6099      	str	r1, [r3, #8]
		thisI2C->I2C_line->Instance->OAR1 = (I2C_OAR1_OA1EN | ( channel_address << 1) );
 800265c:	2180      	movs	r1, #128	; 0x80
 800265e:	0209      	lsls	r1, r1, #8
 8002660:	430c      	orrs	r4, r1
		thisI2C->I2C_line->Instance->CR2 &= ~I2C_CR2_NACK;
		__HAL_I2C_ENABLE_IT(thisI2C->I2C_line, I2C_IT_RXI | I2C_IT_STOPI | I2C_IT_ADDRI);
 8002662:	212c      	movs	r1, #44	; 0x2c
		thisI2C->I2C_line->Instance->OAR1 = (I2C_OAR1_OA1EN | ( channel_address << 1) );
 8002664:	609c      	str	r4, [r3, #8]
		thisI2C->I2C_line->Instance->CR2 &= ~I2C_CR2_NACK;
 8002666:	685a      	ldr	r2, [r3, #4]
 8002668:	402a      	ands	r2, r5
 800266a:	605a      	str	r2, [r3, #4]
		__HAL_I2C_ENABLE_IT(thisI2C->I2C_line, I2C_IT_RXI | I2C_IT_STOPI | I2C_IT_ADDRI);
 800266c:	681a      	ldr	r2, [r3, #0]
 800266e:	430a      	orrs	r2, r1
 8002670:	601a      	str	r2, [r3, #0]
	else
	{
		//TODO  erro handler
	}
	return thisI2C;
}
 8002672:	bd70      	pop	{r4, r5, r6, pc}
 8002674:	ffff7fff 	.word	0xffff7fff

08002678 <LIS3MDL_create>:
#include "lis3mdl_driver.h"

//TODO we need to test the whole library
LIS3MDL_t * LIS3MDL_create(SPI_HandleTypeDef *spi_line,GPIO_TypeDef *CS_Bus,uint16_t CS_Pin,GPIO_TypeDef *DRDY_Bus,uint16_t DRDY_Pin)
{
 8002678:	b5f0      	push	{r4, r5, r6, r7, lr}
 800267a:	46ce      	mov	lr, r9
 800267c:	4647      	mov	r7, r8
 800267e:	4698      	mov	r8, r3
 8002680:	b580      	push	{r7, lr}
 8002682:	b085      	sub	sp, #20
 8002684:	ab0c      	add	r3, sp, #48	; 0x30
 8002686:	881b      	ldrh	r3, [r3, #0]
 8002688:	0007      	movs	r7, r0
	LIS3MDL_t * thisLIS3MDL = (LIS3MDL_t *)malloc(sizeof(LIS3MDL_t));
 800268a:	2018      	movs	r0, #24
{
 800268c:	000d      	movs	r5, r1
 800268e:	0016      	movs	r6, r2
 8002690:	4699      	mov	r9, r3
	LIS3MDL_t * thisLIS3MDL = (LIS3MDL_t *)malloc(sizeof(LIS3MDL_t));
 8002692:	f000 fd33 	bl	80030fc <malloc>
	thisLIS3MDL->CS_GPIO_Bus = CS_Bus;
	thisLIS3MDL->CS_GPIO_Pin = CS_Pin;
	thisLIS3MDL->DRDY_GPIO_Bus = DRDY_Bus;
 8002696:	4643      	mov	r3, r8
 8002698:	6103      	str	r3, [r0, #16]
	thisLIS3MDL->DRDY_GPIO_Pin = DRDY_Pin;
 800269a:	464b      	mov	r3, r9
	LIS3MDL_t * thisLIS3MDL = (LIS3MDL_t *)malloc(sizeof(LIS3MDL_t));
 800269c:	0004      	movs	r4, r0
	thisLIS3MDL->spi_channel = spi_line;
	HAL_GPIO_WritePin(thisLIS3MDL->CS_GPIO_Bus, thisLIS3MDL->CS_GPIO_Pin, GPIO_PIN_SET);   //Set CS pin on sensor A to high to ensure no SPI communication enabled initially
 800269e:	0031      	movs	r1, r6
	thisLIS3MDL->CS_GPIO_Bus = CS_Bus;
 80026a0:	6085      	str	r5, [r0, #8]
	thisLIS3MDL->CS_GPIO_Pin = CS_Pin;
 80026a2:	8186      	strh	r6, [r0, #12]
	thisLIS3MDL->DRDY_GPIO_Pin = DRDY_Pin;
 80026a4:	8283      	strh	r3, [r0, #20]
	thisLIS3MDL->spi_channel = spi_line;
 80026a6:	6047      	str	r7, [r0, #4]
	HAL_GPIO_WritePin(thisLIS3MDL->CS_GPIO_Bus, thisLIS3MDL->CS_GPIO_Pin, GPIO_PIN_SET);   //Set CS pin on sensor A to high to ensure no SPI communication enabled initially
 80026a8:	2201      	movs	r2, #1
 80026aa:	0028      	movs	r0, r5
 80026ac:	f7fe fb2c 	bl	8000d08 <HAL_GPIO_WritePin>
}

void LIS3MDL_register_write(LIS3MDL_t *thisLIS3MDL, uint8_t thisRegister, uint8_t val)
{
	uint8_t out[2];
	out[0] = thisRegister;
 80026b0:	4b4b      	ldr	r3, [pc, #300]	; (80027e0 <LIS3MDL_create+0x168>)
 80026b2:	ad03      	add	r5, sp, #12
 80026b4:	802b      	strh	r3, [r5, #0]
	out[1] = val;
	HAL_GPIO_WritePin(thisLIS3MDL->CS_GPIO_Bus, thisLIS3MDL->CS_GPIO_Pin, GPIO_PIN_RESET); //! Set CS pin low to begin SPI read on target device
 80026b6:	89a1      	ldrh	r1, [r4, #12]
 80026b8:	68a0      	ldr	r0, [r4, #8]
 80026ba:	2200      	movs	r2, #0
 80026bc:	f7fe fb24 	bl	8000d08 <HAL_GPIO_WritePin>
	HAL_SPI_Transmit(thisLIS3MDL->spi_channel, out, 2, 10);
 80026c0:	230a      	movs	r3, #10
 80026c2:	0029      	movs	r1, r5
 80026c4:	2202      	movs	r2, #2
 80026c6:	6860      	ldr	r0, [r4, #4]
 80026c8:	f7ff f8e4 	bl	8001894 <HAL_SPI_Transmit>
	HAL_GPIO_WritePin(thisLIS3MDL->CS_GPIO_Bus, thisLIS3MDL->CS_GPIO_Pin, GPIO_PIN_SET); //! Set CS pin high to signal SPI read as done
 80026cc:	89a1      	ldrh	r1, [r4, #12]
 80026ce:	2201      	movs	r2, #1
 80026d0:	68a0      	ldr	r0, [r4, #8]
 80026d2:	f7fe fb19 	bl	8000d08 <HAL_GPIO_WritePin>
		HAL_Delay(1);
 80026d6:	2001      	movs	r0, #1
 80026d8:	f7fe f9b4 	bl	8000a44 <HAL_Delay>
	out[0] = thisRegister;
 80026dc:	23f1      	movs	r3, #241	; 0xf1
 80026de:	015b      	lsls	r3, r3, #5
 80026e0:	802b      	strh	r3, [r5, #0]
	HAL_GPIO_WritePin(thisLIS3MDL->CS_GPIO_Bus, thisLIS3MDL->CS_GPIO_Pin, GPIO_PIN_RESET); //! Set CS pin low to begin SPI read on target device
 80026e2:	89a1      	ldrh	r1, [r4, #12]
 80026e4:	68a0      	ldr	r0, [r4, #8]
 80026e6:	2200      	movs	r2, #0
 80026e8:	f7fe fb0e 	bl	8000d08 <HAL_GPIO_WritePin>
	HAL_SPI_Transmit(thisLIS3MDL->spi_channel, out, 2, 10);
 80026ec:	230a      	movs	r3, #10
 80026ee:	0029      	movs	r1, r5
 80026f0:	2202      	movs	r2, #2
 80026f2:	6860      	ldr	r0, [r4, #4]
 80026f4:	f7ff f8ce 	bl	8001894 <HAL_SPI_Transmit>
	HAL_GPIO_WritePin(thisLIS3MDL->CS_GPIO_Bus, thisLIS3MDL->CS_GPIO_Pin, GPIO_PIN_SET); //! Set CS pin high to signal SPI read as done
 80026f8:	89a1      	ldrh	r1, [r4, #12]
 80026fa:	68a0      	ldr	r0, [r4, #8]
 80026fc:	2201      	movs	r2, #1
 80026fe:	f7fe fb03 	bl	8000d08 <HAL_GPIO_WritePin>
	out[0] = thisRegister;
 8002702:	4b38      	ldr	r3, [pc, #224]	; (80027e4 <LIS3MDL_create+0x16c>)
	HAL_GPIO_WritePin(thisLIS3MDL->CS_GPIO_Bus, thisLIS3MDL->CS_GPIO_Pin, GPIO_PIN_RESET); //! Set CS pin low to begin SPI read on target device
 8002704:	68a0      	ldr	r0, [r4, #8]
	out[0] = thisRegister;
 8002706:	802b      	strh	r3, [r5, #0]
	HAL_GPIO_WritePin(thisLIS3MDL->CS_GPIO_Bus, thisLIS3MDL->CS_GPIO_Pin, GPIO_PIN_RESET); //! Set CS pin low to begin SPI read on target device
 8002708:	89a1      	ldrh	r1, [r4, #12]
 800270a:	2200      	movs	r2, #0
 800270c:	f7fe fafc 	bl	8000d08 <HAL_GPIO_WritePin>
	HAL_SPI_Transmit(thisLIS3MDL->spi_channel, out, 2, 10);
 8002710:	230a      	movs	r3, #10
 8002712:	0029      	movs	r1, r5
 8002714:	2202      	movs	r2, #2
 8002716:	6860      	ldr	r0, [r4, #4]
 8002718:	f7ff f8bc 	bl	8001894 <HAL_SPI_Transmit>
	HAL_GPIO_WritePin(thisLIS3MDL->CS_GPIO_Bus, thisLIS3MDL->CS_GPIO_Pin, GPIO_PIN_SET); //! Set CS pin high to signal SPI read as done
 800271c:	89a1      	ldrh	r1, [r4, #12]
 800271e:	68a0      	ldr	r0, [r4, #8]
 8002720:	2201      	movs	r2, #1
 8002722:	f7fe faf1 	bl	8000d08 <HAL_GPIO_WritePin>
	out[0] = thisRegister;
 8002726:	2322      	movs	r3, #34	; 0x22
 8002728:	802b      	strh	r3, [r5, #0]
	HAL_GPIO_WritePin(thisLIS3MDL->CS_GPIO_Bus, thisLIS3MDL->CS_GPIO_Pin, GPIO_PIN_RESET); //! Set CS pin low to begin SPI read on target device
 800272a:	89a1      	ldrh	r1, [r4, #12]
 800272c:	68a0      	ldr	r0, [r4, #8]
 800272e:	2200      	movs	r2, #0
 8002730:	f7fe faea 	bl	8000d08 <HAL_GPIO_WritePin>
	HAL_SPI_Transmit(thisLIS3MDL->spi_channel, out, 2, 10);
 8002734:	230a      	movs	r3, #10
 8002736:	0029      	movs	r1, r5
 8002738:	2202      	movs	r2, #2
 800273a:	6860      	ldr	r0, [r4, #4]
 800273c:	f7ff f8aa 	bl	8001894 <HAL_SPI_Transmit>
	HAL_GPIO_WritePin(thisLIS3MDL->CS_GPIO_Bus, thisLIS3MDL->CS_GPIO_Pin, GPIO_PIN_SET); //! Set CS pin high to signal SPI read as done
 8002740:	89a1      	ldrh	r1, [r4, #12]
 8002742:	68a0      	ldr	r0, [r4, #8]
 8002744:	2201      	movs	r2, #1
 8002746:	f7fe fadf 	bl	8000d08 <HAL_GPIO_WritePin>
	out[0] = thisRegister;
 800274a:	4b27      	ldr	r3, [pc, #156]	; (80027e8 <LIS3MDL_create+0x170>)
	HAL_GPIO_WritePin(thisLIS3MDL->CS_GPIO_Bus, thisLIS3MDL->CS_GPIO_Pin, GPIO_PIN_RESET); //! Set CS pin low to begin SPI read on target device
 800274c:	68a0      	ldr	r0, [r4, #8]
	out[0] = thisRegister;
 800274e:	802b      	strh	r3, [r5, #0]
	HAL_GPIO_WritePin(thisLIS3MDL->CS_GPIO_Bus, thisLIS3MDL->CS_GPIO_Pin, GPIO_PIN_RESET); //! Set CS pin low to begin SPI read on target device
 8002750:	89a1      	ldrh	r1, [r4, #12]
 8002752:	2200      	movs	r2, #0
 8002754:	f7fe fad8 	bl	8000d08 <HAL_GPIO_WritePin>
	HAL_SPI_Transmit(thisLIS3MDL->spi_channel, out, 2, 10);
 8002758:	230a      	movs	r3, #10
 800275a:	0029      	movs	r1, r5
 800275c:	2202      	movs	r2, #2
 800275e:	6860      	ldr	r0, [r4, #4]
 8002760:	f7ff f898 	bl	8001894 <HAL_SPI_Transmit>
	HAL_GPIO_WritePin(thisLIS3MDL->CS_GPIO_Bus, thisLIS3MDL->CS_GPIO_Pin, GPIO_PIN_SET); //! Set CS pin high to signal SPI read as done
 8002764:	89a1      	ldrh	r1, [r4, #12]
 8002766:	68a0      	ldr	r0, [r4, #8]
 8002768:	2201      	movs	r2, #1
 800276a:	f7fe facd 	bl	8000d08 <HAL_GPIO_WritePin>
	out[0] = thisRegister;
 800276e:	2324      	movs	r3, #36	; 0x24
 8002770:	802b      	strh	r3, [r5, #0]
	HAL_GPIO_WritePin(thisLIS3MDL->CS_GPIO_Bus, thisLIS3MDL->CS_GPIO_Pin, GPIO_PIN_RESET); //! Set CS pin low to begin SPI read on target device
 8002772:	89a1      	ldrh	r1, [r4, #12]
 8002774:	68a0      	ldr	r0, [r4, #8]
 8002776:	2200      	movs	r2, #0
 8002778:	f7fe fac6 	bl	8000d08 <HAL_GPIO_WritePin>
	HAL_SPI_Transmit(thisLIS3MDL->spi_channel, out, 2, 10);
 800277c:	230a      	movs	r3, #10
 800277e:	0029      	movs	r1, r5
 8002780:	2202      	movs	r2, #2
 8002782:	6860      	ldr	r0, [r4, #4]
 8002784:	f7ff f886 	bl	8001894 <HAL_SPI_Transmit>
	HAL_GPIO_WritePin(thisLIS3MDL->CS_GPIO_Bus, thisLIS3MDL->CS_GPIO_Pin, GPIO_PIN_SET); //! Set CS pin high to signal SPI read as done
 8002788:	89a1      	ldrh	r1, [r4, #12]
 800278a:	68a0      	ldr	r0, [r4, #8]
 800278c:	2201      	movs	r2, #1
 800278e:	f7fe fabb 	bl	8000d08 <HAL_GPIO_WritePin>
	uint8_t in[2] = {0 , 0};
 8002792:	2300      	movs	r3, #0
	out[0] = 128 | thisRegister;   //adding 128 to writing 1 in MSB bit 7
 8002794:	ae02      	add	r6, sp, #8
	uint8_t in[2] = {0 , 0};
 8002796:	802b      	strh	r3, [r5, #0]
	out[0] = 128 | thisRegister;   //adding 128 to writing 1 in MSB bit 7
 8002798:	338f      	adds	r3, #143	; 0x8f
 800279a:	8033      	strh	r3, [r6, #0]
	HAL_GPIO_WritePin(thisLIS3MDL->CS_GPIO_Bus, thisLIS3MDL->CS_GPIO_Pin, GPIO_PIN_RESET); //! Set CS pin low to begin SPI read on target device
 800279c:	89a1      	ldrh	r1, [r4, #12]
 800279e:	68a0      	ldr	r0, [r4, #8]
 80027a0:	2200      	movs	r2, #0
 80027a2:	f7fe fab1 	bl	8000d08 <HAL_GPIO_WritePin>
	HAL_SPI_TransmitReceive(thisLIS3MDL->spi_channel , out, in, 2, 10);
 80027a6:	230a      	movs	r3, #10
 80027a8:	002a      	movs	r2, r5
 80027aa:	0031      	movs	r1, r6
 80027ac:	9300      	str	r3, [sp, #0]
 80027ae:	6860      	ldr	r0, [r4, #4]
 80027b0:	3b08      	subs	r3, #8
 80027b2:	f7ff f995 	bl	8001ae0 <HAL_SPI_TransmitReceive>
	HAL_GPIO_WritePin(thisLIS3MDL->CS_GPIO_Bus, thisLIS3MDL->CS_GPIO_Pin, GPIO_PIN_SET); //! Set CS pin high to signal SPI read as done
 80027b6:	2201      	movs	r2, #1
 80027b8:	68a0      	ldr	r0, [r4, #8]
 80027ba:	89a1      	ldrh	r1, [r4, #12]
 80027bc:	f7fe faa4 	bl	8000d08 <HAL_GPIO_WritePin>
	result = in[1];
 80027c0:	786b      	ldrb	r3, [r5, #1]
}
 80027c2:	0020      	movs	r0, r4
			thisLIS3MDL->sensor_status = LIS3MDL_SENSOR_NOT_FOUND;
 80027c4:	3b3d      	subs	r3, #61	; 0x3d
 80027c6:	425a      	negs	r2, r3
 80027c8:	4153      	adcs	r3, r2
 80027ca:	220f      	movs	r2, #15
 80027cc:	425b      	negs	r3, r3
 80027ce:	4393      	bics	r3, r2
 80027d0:	3330      	adds	r3, #48	; 0x30
 80027d2:	7023      	strb	r3, [r4, #0]
}
 80027d4:	b005      	add	sp, #20
 80027d6:	bcc0      	pop	{r6, r7}
 80027d8:	46b9      	mov	r9, r7
 80027da:	46b0      	mov	r8, r6
 80027dc:	bdf0      	pop	{r4, r5, r6, r7, pc}
 80027de:	46c0      	nop			; (mov r8, r8)
 80027e0:	00000c21 	.word	0x00000c21
 80027e4:	00006021 	.word	0x00006021
 80027e8:	00000c23 	.word	0x00000c23

080027ec <LIS3MDL_register_write>:
{
 80027ec:	b510      	push	{r4, lr}
 80027ee:	b082      	sub	sp, #8
	out[0] = thisRegister;
 80027f0:	466b      	mov	r3, sp
{
 80027f2:	0004      	movs	r4, r0
	out[1] = val;
 80027f4:	715a      	strb	r2, [r3, #5]
	out[0] = thisRegister;
 80027f6:	7119      	strb	r1, [r3, #4]
	HAL_GPIO_WritePin(thisLIS3MDL->CS_GPIO_Bus, thisLIS3MDL->CS_GPIO_Pin, GPIO_PIN_RESET); //! Set CS pin low to begin SPI read on target device
 80027f8:	8981      	ldrh	r1, [r0, #12]
 80027fa:	2200      	movs	r2, #0
 80027fc:	6880      	ldr	r0, [r0, #8]
 80027fe:	f7fe fa83 	bl	8000d08 <HAL_GPIO_WritePin>
	HAL_SPI_Transmit(thisLIS3MDL->spi_channel, out, 2, 10);
 8002802:	230a      	movs	r3, #10
 8002804:	a901      	add	r1, sp, #4
 8002806:	2202      	movs	r2, #2
 8002808:	6860      	ldr	r0, [r4, #4]
 800280a:	f7ff f843 	bl	8001894 <HAL_SPI_Transmit>
	HAL_GPIO_WritePin(thisLIS3MDL->CS_GPIO_Bus, thisLIS3MDL->CS_GPIO_Pin, GPIO_PIN_SET); //! Set CS pin high to signal SPI read as done
 800280e:	2201      	movs	r2, #1
 8002810:	89a1      	ldrh	r1, [r4, #12]
 8002812:	68a0      	ldr	r0, [r4, #8]
 8002814:	f7fe fa78 	bl	8000d08 <HAL_GPIO_WritePin>
}
 8002818:	b002      	add	sp, #8
 800281a:	bd10      	pop	{r4, pc}

0800281c <LIS3MDL_read_XYZ>:
		if (thisLIS3MDL->magneticFront == LIS3MDL_MAXREADINGS)
		{
			thisLIS3MDL->magneticFront = 0;
		}
	}*/
}
 800281c:	4770      	bx	lr
 800281e:	46c0      	nop			; (mov r8, r8)

08002820 <MMC5983_create>:
#include "mmc5983_driver.h"
#include <stdlib.h>

MMC5983_t * MMC5983_create(SPI_HandleTypeDef *spi_line,GPIO_TypeDef *CS_Bus,uint16_t CS_Pin,GPIO_TypeDef *INT_Bus,uint16_t INT_Pin)
{
 8002820:	b5f0      	push	{r4, r5, r6, r7, lr}
 8002822:	46ce      	mov	lr, r9
 8002824:	4647      	mov	r7, r8
 8002826:	4698      	mov	r8, r3
 8002828:	b580      	push	{r7, lr}
 800282a:	b085      	sub	sp, #20
 800282c:	ab0c      	add	r3, sp, #48	; 0x30
 800282e:	881b      	ldrh	r3, [r3, #0]
 8002830:	0007      	movs	r7, r0
	//TODO Do we want to use a series of #defines with | in between to describe configuration registers to make this function more human readable?

	MMC5983_t * thisMMC5983 = (MMC5983_t *) malloc(sizeof(MMC5983_t));
 8002832:	2018      	movs	r0, #24
{
 8002834:	000d      	movs	r5, r1
 8002836:	0016      	movs	r6, r2
 8002838:	4699      	mov	r9, r3
	MMC5983_t * thisMMC5983 = (MMC5983_t *) malloc(sizeof(MMC5983_t));
 800283a:	f000 fc5f 	bl	80030fc <malloc>
	thisMMC5983->CS_GPIO_Bus = CS_Bus;
	thisMMC5983->CS_GPIO_Pin = CS_Pin;
	thisMMC5983->INT_GPIO_Bus = INT_Bus;
 800283e:	4643      	mov	r3, r8
 8002840:	6083      	str	r3, [r0, #8]
	thisMMC5983->INT_GPIO_Pin = INT_Pin;
 8002842:	464b      	mov	r3, r9
	MMC5983_t * thisMMC5983 = (MMC5983_t *) malloc(sizeof(MMC5983_t));
 8002844:	0004      	movs	r4, r0
	thisMMC5983->spi_channel = spi_line;
	HAL_GPIO_WritePin(thisMMC5983->CS_GPIO_Bus, thisMMC5983->CS_GPIO_Pin, GPIO_PIN_SET);   //Set CS pin on sensor A to high to ensure no SPI communication enabled initially
 8002846:	0031      	movs	r1, r6
	thisMMC5983->CS_GPIO_Bus = CS_Bus;
 8002848:	6105      	str	r5, [r0, #16]
	thisMMC5983->CS_GPIO_Pin = CS_Pin;
 800284a:	8286      	strh	r6, [r0, #20]
	thisMMC5983->INT_GPIO_Pin = INT_Pin;
 800284c:	8183      	strh	r3, [r0, #12]
	thisMMC5983->spi_channel = spi_line;
 800284e:	6047      	str	r7, [r0, #4]
	HAL_GPIO_WritePin(thisMMC5983->CS_GPIO_Bus, thisMMC5983->CS_GPIO_Pin, GPIO_PIN_SET);   //Set CS pin on sensor A to high to ensure no SPI communication enabled initially
 8002850:	2201      	movs	r2, #1
 8002852:	0028      	movs	r0, r5
 8002854:	f7fe fa58 	bl	8000d08 <HAL_GPIO_WritePin>
}

void MMC5983_register_write(MMC5983_t *thisMMC5983, uint8_t thisRegister, uint8_t val)
{
	uint8_t out[2];
	out[0] = thisRegister;
 8002858:	4b55      	ldr	r3, [pc, #340]	; (80029b0 <MMC5983_create+0x190>)
 800285a:	ad03      	add	r5, sp, #12
 800285c:	802b      	strh	r3, [r5, #0]
	out[1] = val;
	HAL_GPIO_WritePin(thisMMC5983->CS_GPIO_Bus, thisMMC5983->CS_GPIO_Pin, GPIO_PIN_RESET); //! Set CS pin low to begin SPI read on target device
 800285e:	8aa1      	ldrh	r1, [r4, #20]
 8002860:	6920      	ldr	r0, [r4, #16]
 8002862:	2200      	movs	r2, #0
 8002864:	f7fe fa50 	bl	8000d08 <HAL_GPIO_WritePin>
	HAL_SPI_Transmit(thisMMC5983->spi_channel, out, 2, 10);
 8002868:	230a      	movs	r3, #10
 800286a:	0029      	movs	r1, r5
 800286c:	2202      	movs	r2, #2
 800286e:	6860      	ldr	r0, [r4, #4]
 8002870:	f7ff f810 	bl	8001894 <HAL_SPI_Transmit>
	HAL_GPIO_WritePin(thisMMC5983->CS_GPIO_Bus, thisMMC5983->CS_GPIO_Pin, GPIO_PIN_SET); //! Set CS pin high to signal SPI read as done
 8002874:	8aa1      	ldrh	r1, [r4, #20]
 8002876:	2201      	movs	r2, #1
 8002878:	6920      	ldr	r0, [r4, #16]
 800287a:	f7fe fa45 	bl	8000d08 <HAL_GPIO_WritePin>
		HAL_Delay(20);
 800287e:	2014      	movs	r0, #20
 8002880:	f7fe f8e0 	bl	8000a44 <HAL_Delay>
	out[0] = thisRegister;
 8002884:	4b4b      	ldr	r3, [pc, #300]	; (80029b4 <MMC5983_create+0x194>)
	HAL_GPIO_WritePin(thisMMC5983->CS_GPIO_Bus, thisMMC5983->CS_GPIO_Pin, GPIO_PIN_RESET); //! Set CS pin low to begin SPI read on target device
 8002886:	6920      	ldr	r0, [r4, #16]
	out[0] = thisRegister;
 8002888:	802b      	strh	r3, [r5, #0]
	HAL_GPIO_WritePin(thisMMC5983->CS_GPIO_Bus, thisMMC5983->CS_GPIO_Pin, GPIO_PIN_RESET); //! Set CS pin low to begin SPI read on target device
 800288a:	8aa1      	ldrh	r1, [r4, #20]
 800288c:	2200      	movs	r2, #0
 800288e:	f7fe fa3b 	bl	8000d08 <HAL_GPIO_WritePin>
	HAL_SPI_Transmit(thisMMC5983->spi_channel, out, 2, 10);
 8002892:	230a      	movs	r3, #10
 8002894:	0029      	movs	r1, r5
 8002896:	2202      	movs	r2, #2
 8002898:	6860      	ldr	r0, [r4, #4]
 800289a:	f7fe fffb 	bl	8001894 <HAL_SPI_Transmit>
	HAL_GPIO_WritePin(thisMMC5983->CS_GPIO_Bus, thisMMC5983->CS_GPIO_Pin, GPIO_PIN_SET); //! Set CS pin high to signal SPI read as done
 800289e:	8aa1      	ldrh	r1, [r4, #20]
 80028a0:	2201      	movs	r2, #1
 80028a2:	6920      	ldr	r0, [r4, #16]
 80028a4:	f7fe fa30 	bl	8000d08 <HAL_GPIO_WritePin>
		HAL_Delay(5);
 80028a8:	2005      	movs	r0, #5
 80028aa:	f7fe f8cb 	bl	8000a44 <HAL_Delay>
	out[0] = thisRegister;
 80028ae:	230c      	movs	r3, #12
 80028b0:	270a      	movs	r7, #10
 80028b2:	802b      	strh	r3, [r5, #0]
	HAL_GPIO_WritePin(thisMMC5983->CS_GPIO_Bus, thisMMC5983->CS_GPIO_Pin, GPIO_PIN_RESET); //! Set CS pin low to begin SPI read on target device
 80028b4:	8aa1      	ldrh	r1, [r4, #20]
 80028b6:	6920      	ldr	r0, [r4, #16]
 80028b8:	2200      	movs	r2, #0
 80028ba:	f7fe fa25 	bl	8000d08 <HAL_GPIO_WritePin>
	HAL_SPI_Transmit(thisMMC5983->spi_channel, out, 2, 10);
 80028be:	230a      	movs	r3, #10
 80028c0:	0029      	movs	r1, r5
 80028c2:	2202      	movs	r2, #2
 80028c4:	6860      	ldr	r0, [r4, #4]
 80028c6:	f7fe ffe5 	bl	8001894 <HAL_SPI_Transmit>
	HAL_GPIO_WritePin(thisMMC5983->CS_GPIO_Bus, thisMMC5983->CS_GPIO_Pin, GPIO_PIN_SET); //! Set CS pin high to signal SPI read as done
 80028ca:	8aa1      	ldrh	r1, [r4, #20]
 80028cc:	6920      	ldr	r0, [r4, #16]
 80028ce:	2201      	movs	r2, #1
 80028d0:	f7fe fa1a 	bl	8000d08 <HAL_GPIO_WritePin>
	out[0] = thisRegister;
 80028d4:	4b38      	ldr	r3, [pc, #224]	; (80029b8 <MMC5983_create+0x198>)
	HAL_GPIO_WritePin(thisMMC5983->CS_GPIO_Bus, thisMMC5983->CS_GPIO_Pin, GPIO_PIN_RESET); //! Set CS pin low to begin SPI read on target device
 80028d6:	6920      	ldr	r0, [r4, #16]
	out[0] = thisRegister;
 80028d8:	802b      	strh	r3, [r5, #0]
	HAL_GPIO_WritePin(thisMMC5983->CS_GPIO_Bus, thisMMC5983->CS_GPIO_Pin, GPIO_PIN_RESET); //! Set CS pin low to begin SPI read on target device
 80028da:	8aa1      	ldrh	r1, [r4, #20]
 80028dc:	2200      	movs	r2, #0
 80028de:	f7fe fa13 	bl	8000d08 <HAL_GPIO_WritePin>
	HAL_SPI_Transmit(thisMMC5983->spi_channel, out, 2, 10);
 80028e2:	230a      	movs	r3, #10
 80028e4:	0029      	movs	r1, r5
 80028e6:	2202      	movs	r2, #2
 80028e8:	6860      	ldr	r0, [r4, #4]
 80028ea:	f7fe ffd3 	bl	8001894 <HAL_SPI_Transmit>
	HAL_GPIO_WritePin(thisMMC5983->CS_GPIO_Bus, thisMMC5983->CS_GPIO_Pin, GPIO_PIN_SET); //! Set CS pin high to signal SPI read as done
 80028ee:	8aa1      	ldrh	r1, [r4, #20]
 80028f0:	6920      	ldr	r0, [r4, #16]
 80028f2:	2201      	movs	r2, #1
 80028f4:	f7fe fa08 	bl	8000d08 <HAL_GPIO_WritePin>
	out[0] = thisRegister;
 80028f8:	802f      	strh	r7, [r5, #0]
	HAL_GPIO_WritePin(thisMMC5983->CS_GPIO_Bus, thisMMC5983->CS_GPIO_Pin, GPIO_PIN_RESET); //! Set CS pin low to begin SPI read on target device
 80028fa:	8aa1      	ldrh	r1, [r4, #20]
 80028fc:	6920      	ldr	r0, [r4, #16]
 80028fe:	2200      	movs	r2, #0
 8002900:	f7fe fa02 	bl	8000d08 <HAL_GPIO_WritePin>
	HAL_SPI_Transmit(thisMMC5983->spi_channel, out, 2, 10);
 8002904:	230a      	movs	r3, #10
 8002906:	0029      	movs	r1, r5
 8002908:	2202      	movs	r2, #2
 800290a:	6860      	ldr	r0, [r4, #4]
 800290c:	f7fe ffc2 	bl	8001894 <HAL_SPI_Transmit>
	HAL_GPIO_WritePin(thisMMC5983->CS_GPIO_Bus, thisMMC5983->CS_GPIO_Pin, GPIO_PIN_SET); //! Set CS pin high to signal SPI read as done
 8002910:	8aa1      	ldrh	r1, [r4, #20]
 8002912:	6920      	ldr	r0, [r4, #16]
 8002914:	2201      	movs	r2, #1
 8002916:	f7fe f9f7 	bl	8000d08 <HAL_GPIO_WritePin>
	out[0] = thisRegister;
 800291a:	230b      	movs	r3, #11
 800291c:	802b      	strh	r3, [r5, #0]
	HAL_GPIO_WritePin(thisMMC5983->CS_GPIO_Bus, thisMMC5983->CS_GPIO_Pin, GPIO_PIN_RESET); //! Set CS pin low to begin SPI read on target device
 800291e:	8aa1      	ldrh	r1, [r4, #20]
 8002920:	6920      	ldr	r0, [r4, #16]
 8002922:	2200      	movs	r2, #0
 8002924:	f7fe f9f0 	bl	8000d08 <HAL_GPIO_WritePin>
	HAL_SPI_Transmit(thisMMC5983->spi_channel, out, 2, 10);
 8002928:	230a      	movs	r3, #10
 800292a:	0029      	movs	r1, r5
 800292c:	2202      	movs	r2, #2
 800292e:	6860      	ldr	r0, [r4, #4]
 8002930:	f7fe ffb0 	bl	8001894 <HAL_SPI_Transmit>
	HAL_GPIO_WritePin(thisMMC5983->CS_GPIO_Bus, thisMMC5983->CS_GPIO_Pin, GPIO_PIN_SET); //! Set CS pin high to signal SPI read as done
 8002934:	8aa1      	ldrh	r1, [r4, #20]
 8002936:	6920      	ldr	r0, [r4, #16]
 8002938:	2201      	movs	r2, #1
 800293a:	f7fe f9e5 	bl	8000d08 <HAL_GPIO_WritePin>
	uint8_t in[2] = {0 , 0};
 800293e:	2300      	movs	r3, #0
	out[0] = MMC5983_READ | thisRegister;   //adding 128 to writing 1 in MSB bit 7
 8002940:	ae02      	add	r6, sp, #8
	uint8_t in[2] = {0 , 0};
 8002942:	802b      	strh	r3, [r5, #0]
	out[0] = MMC5983_READ | thisRegister;   //adding 128 to writing 1 in MSB bit 7
 8002944:	33af      	adds	r3, #175	; 0xaf
 8002946:	8033      	strh	r3, [r6, #0]
	HAL_GPIO_WritePin(thisMMC5983->CS_GPIO_Bus, thisMMC5983->CS_GPIO_Pin, GPIO_PIN_RESET); //! Set CS pin low to begin SPI read on target device
 8002948:	8aa1      	ldrh	r1, [r4, #20]
 800294a:	6920      	ldr	r0, [r4, #16]
 800294c:	2200      	movs	r2, #0
 800294e:	f7fe f9db 	bl	8000d08 <HAL_GPIO_WritePin>
	HAL_SPI_TransmitReceive(thisMMC5983->spi_channel , out, in, 2, 10);
 8002952:	2302      	movs	r3, #2
 8002954:	002a      	movs	r2, r5
 8002956:	0031      	movs	r1, r6
 8002958:	6860      	ldr	r0, [r4, #4]
 800295a:	9700      	str	r7, [sp, #0]
 800295c:	f7ff f8c0 	bl	8001ae0 <HAL_SPI_TransmitReceive>
	HAL_GPIO_WritePin(thisMMC5983->CS_GPIO_Bus, thisMMC5983->CS_GPIO_Pin, GPIO_PIN_SET); //! Set CS pin high to signal SPI read as done
 8002960:	2201      	movs	r2, #1
 8002962:	8aa1      	ldrh	r1, [r4, #20]
 8002964:	6920      	ldr	r0, [r4, #16]
 8002966:	f7fe f9cf 	bl	8000d08 <HAL_GPIO_WritePin>
	result = in[1];
 800296a:	786b      	ldrb	r3, [r5, #1]
	HAL_GPIO_WritePin(thisMMC5983->CS_GPIO_Bus, thisMMC5983->CS_GPIO_Pin, GPIO_PIN_RESET); //! Set CS pin low to begin SPI read on target device
 800296c:	6920      	ldr	r0, [r4, #16]
			thisMMC5983->sensor_status = MMC5983_SENSOR_NOT_FOUND;
 800296e:	3b30      	subs	r3, #48	; 0x30
 8002970:	425a      	negs	r2, r3
 8002972:	4153      	adcs	r3, r2
 8002974:	220f      	movs	r2, #15
 8002976:	425b      	negs	r3, r3
 8002978:	4393      	bics	r3, r2
 800297a:	3330      	adds	r3, #48	; 0x30
 800297c:	7023      	strb	r3, [r4, #0]
	out[0] = thisRegister;
 800297e:	230a      	movs	r3, #10
 8002980:	33ff      	adds	r3, #255	; 0xff
 8002982:	802b      	strh	r3, [r5, #0]
	HAL_GPIO_WritePin(thisMMC5983->CS_GPIO_Bus, thisMMC5983->CS_GPIO_Pin, GPIO_PIN_RESET); //! Set CS pin low to begin SPI read on target device
 8002984:	8aa1      	ldrh	r1, [r4, #20]
 8002986:	2200      	movs	r2, #0
 8002988:	f7fe f9be 	bl	8000d08 <HAL_GPIO_WritePin>
	HAL_SPI_Transmit(thisMMC5983->spi_channel, out, 2, 10);
 800298c:	230a      	movs	r3, #10
 800298e:	0029      	movs	r1, r5
 8002990:	2202      	movs	r2, #2
 8002992:	6860      	ldr	r0, [r4, #4]
 8002994:	f7fe ff7e 	bl	8001894 <HAL_SPI_Transmit>
	HAL_GPIO_WritePin(thisMMC5983->CS_GPIO_Bus, thisMMC5983->CS_GPIO_Pin, GPIO_PIN_SET); //! Set CS pin high to signal SPI read as done
 8002998:	6920      	ldr	r0, [r4, #16]
 800299a:	2201      	movs	r2, #1
 800299c:	8aa1      	ldrh	r1, [r4, #20]
 800299e:	f7fe f9b3 	bl	8000d08 <HAL_GPIO_WritePin>
}
 80029a2:	0020      	movs	r0, r4
 80029a4:	b005      	add	sp, #20
 80029a6:	bcc0      	pop	{r6, r7}
 80029a8:	46b9      	mov	r9, r7
 80029aa:	46b0      	mov	r8, r6
 80029ac:	bdf0      	pop	{r4, r5, r6, r7, pc}
 80029ae:	46c0      	nop			; (mov r8, r8)
 80029b0:	ffff800a 	.word	0xffff800a
 80029b4:	00000809 	.word	0x00000809
 80029b8:	00002009 	.word	0x00002009

080029bc <MMC5983_register_write>:
{
 80029bc:	b510      	push	{r4, lr}
 80029be:	b082      	sub	sp, #8
	out[0] = thisRegister;
 80029c0:	466b      	mov	r3, sp
{
 80029c2:	0004      	movs	r4, r0
	out[1] = val;
 80029c4:	715a      	strb	r2, [r3, #5]
	out[0] = thisRegister;
 80029c6:	7119      	strb	r1, [r3, #4]
	HAL_GPIO_WritePin(thisMMC5983->CS_GPIO_Bus, thisMMC5983->CS_GPIO_Pin, GPIO_PIN_RESET); //! Set CS pin low to begin SPI read on target device
 80029c8:	8a81      	ldrh	r1, [r0, #20]
 80029ca:	2200      	movs	r2, #0
 80029cc:	6900      	ldr	r0, [r0, #16]
 80029ce:	f7fe f99b 	bl	8000d08 <HAL_GPIO_WritePin>
	HAL_SPI_Transmit(thisMMC5983->spi_channel, out, 2, 10);
 80029d2:	230a      	movs	r3, #10
 80029d4:	a901      	add	r1, sp, #4
 80029d6:	2202      	movs	r2, #2
 80029d8:	6860      	ldr	r0, [r4, #4]
 80029da:	f7fe ff5b 	bl	8001894 <HAL_SPI_Transmit>
	HAL_GPIO_WritePin(thisMMC5983->CS_GPIO_Bus, thisMMC5983->CS_GPIO_Pin, GPIO_PIN_SET); //! Set CS pin high to signal SPI read as done
 80029de:	2201      	movs	r2, #1
 80029e0:	8aa1      	ldrh	r1, [r4, #20]
 80029e2:	6920      	ldr	r0, [r4, #16]
 80029e4:	f7fe f990 	bl	8000d08 <HAL_GPIO_WritePin>
}
 80029e8:	b002      	add	sp, #8
 80029ea:	bd10      	pop	{r4, pc}

080029ec <MMC5983_read_XYZ>:
//-----------  we really do not need to send the second parameter since by having the address of the magnetometer object ----------
//------- we can calculate the offset of x y z data place holder there is risk on that approach if someone in future ------------
//--- add more eleman at the bigining of the structure or change the data type we need to consider those changes ---------
//----and after c++ 11 compiler can not guarantee the address of the first member of the struct is equal to the struct address -------------
uint8_t MMC5983_read_XYZ(MMC5983_t *thisMMC5983,uint8_t * data)
{
 80029ec:	b5f0      	push	{r4, r5, r6, r7, lr}
 80029ee:	46ce      	mov	lr, r9
 80029f0:	4647      	mov	r7, r8
 80029f2:	b580      	push	{r7, lr}
	uint8_t in[2] = {0 , 0};
 80029f4:	2300      	movs	r3, #0
{
 80029f6:	b085      	sub	sp, #20
	out[0] = MMC5983_READ | thisRegister;   //adding 128 to writing 1 in MSB bit 7
 80029f8:	466a      	mov	r2, sp
{
 80029fa:	0004      	movs	r4, r0
	HAL_SPI_TransmitReceive(thisMMC5983->spi_channel , out, in, 2, 10);
 80029fc:	270a      	movs	r7, #10
	uint8_t in[2] = {0 , 0};
 80029fe:	ad03      	add	r5, sp, #12
 8002a00:	802b      	strh	r3, [r5, #0]
 8002a02:	4698      	mov	r8, r3
	out[0] = MMC5983_READ | thisRegister;   //adding 128 to writing 1 in MSB bit 7
 8002a04:	3388      	adds	r3, #136	; 0x88
 8002a06:	8113      	strh	r3, [r2, #8]
{
 8002a08:	000e      	movs	r6, r1
	HAL_GPIO_WritePin(thisMMC5983->CS_GPIO_Bus, thisMMC5983->CS_GPIO_Pin, GPIO_PIN_RESET); //! Set CS pin low to begin SPI read on target device
 8002a0a:	2200      	movs	r2, #0
 8002a0c:	8a81      	ldrh	r1, [r0, #20]
 8002a0e:	6900      	ldr	r0, [r0, #16]
 8002a10:	f7fe f97a 	bl	8000d08 <HAL_GPIO_WritePin>
	HAL_SPI_TransmitReceive(thisMMC5983->spi_channel , out, in, 2, 10);
 8002a14:	2302      	movs	r3, #2
 8002a16:	002a      	movs	r2, r5
 8002a18:	a902      	add	r1, sp, #8
 8002a1a:	6860      	ldr	r0, [r4, #4]
 8002a1c:	9700      	str	r7, [sp, #0]
 8002a1e:	f7ff f85f 	bl	8001ae0 <HAL_SPI_TransmitReceive>
	HAL_GPIO_WritePin(thisMMC5983->CS_GPIO_Bus, thisMMC5983->CS_GPIO_Pin, GPIO_PIN_SET); //! Set CS pin high to signal SPI read as done
 8002a22:	2201      	movs	r2, #1
 8002a24:	8aa1      	ldrh	r1, [r4, #20]
 8002a26:	6920      	ldr	r0, [r4, #16]
 8002a28:	f7fe f96e 	bl	8000d08 <HAL_GPIO_WritePin>
	result = in[1];
 8002a2c:	2201      	movs	r2, #1
 8002a2e:	0011      	movs	r1, r2
 8002a30:	786b      	ldrb	r3, [r5, #1]
	//TODO  need a better implimentation
	uint8_t sensor_status;
	sensor_status = MMC5983_register_read(thisMMC5983, MMC5983_STATUS);
	if(sensor_status & MMC5983_STATUS_Meas_M_Done )
 8002a32:	4019      	ands	r1, r3
 8002a34:	4689      	mov	r9, r1
 8002a36:	421a      	tst	r2, r3
 8002a38:	d105      	bne.n	8002a46 <MMC5983_read_XYZ+0x5a>
		data[4] =MMC5983_register_read(thisMMC5983, MMC5983_ZOUT1);
		data[5] =MMC5983_register_read(thisMMC5983, MMC5983_ZOUT0);
		return 1;
	}
	return 0;
}
 8002a3a:	4648      	mov	r0, r9
 8002a3c:	b005      	add	sp, #20
 8002a3e:	bcc0      	pop	{r6, r7}
 8002a40:	46b9      	mov	r9, r7
 8002a42:	46b0      	mov	r8, r6
 8002a44:	bdf0      	pop	{r4, r5, r6, r7, pc}
	uint8_t in[2] = {0 , 0};
 8002a46:	4643      	mov	r3, r8
	out[0] = MMC5983_READ | thisRegister;   //adding 128 to writing 1 in MSB bit 7
 8002a48:	466a      	mov	r2, sp
	uint8_t in[2] = {0 , 0};
 8002a4a:	802b      	strh	r3, [r5, #0]
	out[0] = MMC5983_READ | thisRegister;   //adding 128 to writing 1 in MSB bit 7
 8002a4c:	3381      	adds	r3, #129	; 0x81
 8002a4e:	8113      	strh	r3, [r2, #8]
	HAL_GPIO_WritePin(thisMMC5983->CS_GPIO_Bus, thisMMC5983->CS_GPIO_Pin, GPIO_PIN_RESET); //! Set CS pin low to begin SPI read on target device
 8002a50:	8aa1      	ldrh	r1, [r4, #20]
 8002a52:	2200      	movs	r2, #0
 8002a54:	6920      	ldr	r0, [r4, #16]
 8002a56:	f7fe f957 	bl	8000d08 <HAL_GPIO_WritePin>
	HAL_SPI_TransmitReceive(thisMMC5983->spi_channel , out, in, 2, 10);
 8002a5a:	2302      	movs	r3, #2
 8002a5c:	002a      	movs	r2, r5
 8002a5e:	a902      	add	r1, sp, #8
 8002a60:	6860      	ldr	r0, [r4, #4]
 8002a62:	9700      	str	r7, [sp, #0]
 8002a64:	f7ff f83c 	bl	8001ae0 <HAL_SPI_TransmitReceive>
	HAL_GPIO_WritePin(thisMMC5983->CS_GPIO_Bus, thisMMC5983->CS_GPIO_Pin, GPIO_PIN_SET); //! Set CS pin high to signal SPI read as done
 8002a68:	2201      	movs	r2, #1
 8002a6a:	8aa1      	ldrh	r1, [r4, #20]
 8002a6c:	6920      	ldr	r0, [r4, #16]
 8002a6e:	f7fe f94b 	bl	8000d08 <HAL_GPIO_WritePin>
	result = in[1];
 8002a72:	786b      	ldrb	r3, [r5, #1]
	out[0] = MMC5983_READ | thisRegister;   //adding 128 to writing 1 in MSB bit 7
 8002a74:	466a      	mov	r2, sp
		data[0] =MMC5983_register_read(thisMMC5983, MMC5983_XOUT1);
 8002a76:	7033      	strb	r3, [r6, #0]
	uint8_t in[2] = {0 , 0};
 8002a78:	4643      	mov	r3, r8
 8002a7a:	802b      	strh	r3, [r5, #0]
	out[0] = MMC5983_READ | thisRegister;   //adding 128 to writing 1 in MSB bit 7
 8002a7c:	3380      	adds	r3, #128	; 0x80
 8002a7e:	8113      	strh	r3, [r2, #8]
	HAL_GPIO_WritePin(thisMMC5983->CS_GPIO_Bus, thisMMC5983->CS_GPIO_Pin, GPIO_PIN_RESET); //! Set CS pin low to begin SPI read on target device
 8002a80:	8aa1      	ldrh	r1, [r4, #20]
 8002a82:	2200      	movs	r2, #0
 8002a84:	6920      	ldr	r0, [r4, #16]
 8002a86:	f7fe f93f 	bl	8000d08 <HAL_GPIO_WritePin>
	HAL_SPI_TransmitReceive(thisMMC5983->spi_channel , out, in, 2, 10);
 8002a8a:	2302      	movs	r3, #2
 8002a8c:	002a      	movs	r2, r5
 8002a8e:	a902      	add	r1, sp, #8
 8002a90:	6860      	ldr	r0, [r4, #4]
 8002a92:	9700      	str	r7, [sp, #0]
 8002a94:	f7ff f824 	bl	8001ae0 <HAL_SPI_TransmitReceive>
	HAL_GPIO_WritePin(thisMMC5983->CS_GPIO_Bus, thisMMC5983->CS_GPIO_Pin, GPIO_PIN_SET); //! Set CS pin high to signal SPI read as done
 8002a98:	2201      	movs	r2, #1
 8002a9a:	8aa1      	ldrh	r1, [r4, #20]
 8002a9c:	6920      	ldr	r0, [r4, #16]
 8002a9e:	f7fe f933 	bl	8000d08 <HAL_GPIO_WritePin>
	result = in[1];
 8002aa2:	786b      	ldrb	r3, [r5, #1]
	out[0] = MMC5983_READ | thisRegister;   //adding 128 to writing 1 in MSB bit 7
 8002aa4:	466a      	mov	r2, sp
		data[1] =MMC5983_register_read(thisMMC5983, MMC5983_XOUT0);
 8002aa6:	7073      	strb	r3, [r6, #1]
	uint8_t in[2] = {0 , 0};
 8002aa8:	4643      	mov	r3, r8
 8002aaa:	802b      	strh	r3, [r5, #0]
	out[0] = MMC5983_READ | thisRegister;   //adding 128 to writing 1 in MSB bit 7
 8002aac:	3383      	adds	r3, #131	; 0x83
 8002aae:	8113      	strh	r3, [r2, #8]
	HAL_GPIO_WritePin(thisMMC5983->CS_GPIO_Bus, thisMMC5983->CS_GPIO_Pin, GPIO_PIN_RESET); //! Set CS pin low to begin SPI read on target device
 8002ab0:	8aa1      	ldrh	r1, [r4, #20]
 8002ab2:	2200      	movs	r2, #0
 8002ab4:	6920      	ldr	r0, [r4, #16]
 8002ab6:	f7fe f927 	bl	8000d08 <HAL_GPIO_WritePin>
	HAL_SPI_TransmitReceive(thisMMC5983->spi_channel , out, in, 2, 10);
 8002aba:	2302      	movs	r3, #2
 8002abc:	002a      	movs	r2, r5
 8002abe:	a902      	add	r1, sp, #8
 8002ac0:	6860      	ldr	r0, [r4, #4]
 8002ac2:	9700      	str	r7, [sp, #0]
 8002ac4:	f7ff f80c 	bl	8001ae0 <HAL_SPI_TransmitReceive>
	HAL_GPIO_WritePin(thisMMC5983->CS_GPIO_Bus, thisMMC5983->CS_GPIO_Pin, GPIO_PIN_SET); //! Set CS pin high to signal SPI read as done
 8002ac8:	2201      	movs	r2, #1
 8002aca:	8aa1      	ldrh	r1, [r4, #20]
 8002acc:	6920      	ldr	r0, [r4, #16]
 8002ace:	f7fe f91b 	bl	8000d08 <HAL_GPIO_WritePin>
	result = in[1];
 8002ad2:	786b      	ldrb	r3, [r5, #1]
	out[0] = MMC5983_READ | thisRegister;   //adding 128 to writing 1 in MSB bit 7
 8002ad4:	466a      	mov	r2, sp
		data[2] =MMC5983_register_read(thisMMC5983, MMC5983_YOUT1);
 8002ad6:	70b3      	strb	r3, [r6, #2]
	uint8_t in[2] = {0 , 0};
 8002ad8:	4643      	mov	r3, r8
 8002ada:	802b      	strh	r3, [r5, #0]
	out[0] = MMC5983_READ | thisRegister;   //adding 128 to writing 1 in MSB bit 7
 8002adc:	3382      	adds	r3, #130	; 0x82
 8002ade:	8113      	strh	r3, [r2, #8]
	HAL_GPIO_WritePin(thisMMC5983->CS_GPIO_Bus, thisMMC5983->CS_GPIO_Pin, GPIO_PIN_RESET); //! Set CS pin low to begin SPI read on target device
 8002ae0:	8aa1      	ldrh	r1, [r4, #20]
 8002ae2:	2200      	movs	r2, #0
 8002ae4:	6920      	ldr	r0, [r4, #16]
 8002ae6:	f7fe f90f 	bl	8000d08 <HAL_GPIO_WritePin>
	HAL_SPI_TransmitReceive(thisMMC5983->spi_channel , out, in, 2, 10);
 8002aea:	2302      	movs	r3, #2
 8002aec:	002a      	movs	r2, r5
 8002aee:	a902      	add	r1, sp, #8
 8002af0:	6860      	ldr	r0, [r4, #4]
 8002af2:	9700      	str	r7, [sp, #0]
 8002af4:	f7fe fff4 	bl	8001ae0 <HAL_SPI_TransmitReceive>
	HAL_GPIO_WritePin(thisMMC5983->CS_GPIO_Bus, thisMMC5983->CS_GPIO_Pin, GPIO_PIN_SET); //! Set CS pin high to signal SPI read as done
 8002af8:	2201      	movs	r2, #1
 8002afa:	8aa1      	ldrh	r1, [r4, #20]
 8002afc:	6920      	ldr	r0, [r4, #16]
 8002afe:	f7fe f903 	bl	8000d08 <HAL_GPIO_WritePin>
	result = in[1];
 8002b02:	786b      	ldrb	r3, [r5, #1]
	out[0] = MMC5983_READ | thisRegister;   //adding 128 to writing 1 in MSB bit 7
 8002b04:	466a      	mov	r2, sp
		data[3] =MMC5983_register_read(thisMMC5983, MMC5983_YOUT0);
 8002b06:	70f3      	strb	r3, [r6, #3]
	uint8_t in[2] = {0 , 0};
 8002b08:	4643      	mov	r3, r8
 8002b0a:	802b      	strh	r3, [r5, #0]
	out[0] = MMC5983_READ | thisRegister;   //adding 128 to writing 1 in MSB bit 7
 8002b0c:	3385      	adds	r3, #133	; 0x85
 8002b0e:	8113      	strh	r3, [r2, #8]
	HAL_GPIO_WritePin(thisMMC5983->CS_GPIO_Bus, thisMMC5983->CS_GPIO_Pin, GPIO_PIN_RESET); //! Set CS pin low to begin SPI read on target device
 8002b10:	8aa1      	ldrh	r1, [r4, #20]
 8002b12:	2200      	movs	r2, #0
 8002b14:	6920      	ldr	r0, [r4, #16]
 8002b16:	f7fe f8f7 	bl	8000d08 <HAL_GPIO_WritePin>
	HAL_SPI_TransmitReceive(thisMMC5983->spi_channel , out, in, 2, 10);
 8002b1a:	2302      	movs	r3, #2
 8002b1c:	002a      	movs	r2, r5
 8002b1e:	a902      	add	r1, sp, #8
 8002b20:	6860      	ldr	r0, [r4, #4]
 8002b22:	9700      	str	r7, [sp, #0]
 8002b24:	f7fe ffdc 	bl	8001ae0 <HAL_SPI_TransmitReceive>
	HAL_GPIO_WritePin(thisMMC5983->CS_GPIO_Bus, thisMMC5983->CS_GPIO_Pin, GPIO_PIN_SET); //! Set CS pin high to signal SPI read as done
 8002b28:	2201      	movs	r2, #1
 8002b2a:	8aa1      	ldrh	r1, [r4, #20]
 8002b2c:	6920      	ldr	r0, [r4, #16]
 8002b2e:	f7fe f8eb 	bl	8000d08 <HAL_GPIO_WritePin>
	result = in[1];
 8002b32:	786b      	ldrb	r3, [r5, #1]
	out[0] = MMC5983_READ | thisRegister;   //adding 128 to writing 1 in MSB bit 7
 8002b34:	466a      	mov	r2, sp
		data[4] =MMC5983_register_read(thisMMC5983, MMC5983_ZOUT1);
 8002b36:	7133      	strb	r3, [r6, #4]
	uint8_t in[2] = {0 , 0};
 8002b38:	4643      	mov	r3, r8
 8002b3a:	802b      	strh	r3, [r5, #0]
	out[0] = MMC5983_READ | thisRegister;   //adding 128 to writing 1 in MSB bit 7
 8002b3c:	3384      	adds	r3, #132	; 0x84
 8002b3e:	8113      	strh	r3, [r2, #8]
	HAL_GPIO_WritePin(thisMMC5983->CS_GPIO_Bus, thisMMC5983->CS_GPIO_Pin, GPIO_PIN_RESET); //! Set CS pin low to begin SPI read on target device
 8002b40:	8aa1      	ldrh	r1, [r4, #20]
 8002b42:	2200      	movs	r2, #0
 8002b44:	6920      	ldr	r0, [r4, #16]
 8002b46:	f7fe f8df 	bl	8000d08 <HAL_GPIO_WritePin>
	HAL_SPI_TransmitReceive(thisMMC5983->spi_channel , out, in, 2, 10);
 8002b4a:	2302      	movs	r3, #2
 8002b4c:	002a      	movs	r2, r5
 8002b4e:	a902      	add	r1, sp, #8
 8002b50:	6860      	ldr	r0, [r4, #4]
 8002b52:	9700      	str	r7, [sp, #0]
 8002b54:	f7fe ffc4 	bl	8001ae0 <HAL_SPI_TransmitReceive>
	HAL_GPIO_WritePin(thisMMC5983->CS_GPIO_Bus, thisMMC5983->CS_GPIO_Pin, GPIO_PIN_SET); //! Set CS pin high to signal SPI read as done
 8002b58:	2201      	movs	r2, #1
 8002b5a:	8aa1      	ldrh	r1, [r4, #20]
 8002b5c:	6920      	ldr	r0, [r4, #16]
 8002b5e:	f7fe f8d3 	bl	8000d08 <HAL_GPIO_WritePin>
	result = in[1];
 8002b62:	786b      	ldrb	r3, [r5, #1]
		data[5] =MMC5983_register_read(thisMMC5983, MMC5983_ZOUT0);
 8002b64:	7173      	strb	r3, [r6, #5]
		return 1;
 8002b66:	e768      	b.n	8002a3a <MMC5983_read_XYZ+0x4e>

08002b68 <MMC5983_get_status>:
//---------------------------
uint8_t MMC5983_get_status(MMC5983_t *thisMMC5983)
{
	if(thisMMC5983->sensor_status == MMC5983_SENSOR_FOUND)
 8002b68:	7800      	ldrb	r0, [r0, #0]
 8002b6a:	3820      	subs	r0, #32
 8002b6c:	4243      	negs	r3, r0
 8002b6e:	4158      	adcs	r0, r3
 8002b70:	b2c0      	uxtb	r0, r0
	}
	else
	{
		return 0;
	}
}
 8002b72:	4770      	bx	lr

08002b74 <I2C2_IRQHandler>:
extern I2C_HandleTypeDef hi2c2;
extern TIM_HandleTypeDef htim21;
extern System my_sys;
//------------------------i2c int------------------
void I2C2_IRQHandler(void)
{
 8002b74:	b570      	push	{r4, r5, r6, lr}
	if ((I2C_CHECK_FLAG(my_sys.i2c_line->I2C_line->Instance->ISR, I2C_FLAG_RXNE) != RESET) && (I2C_CHECK_IT_SOURCE(my_sys.i2c_line->I2C_line->Instance->CR1, I2C_IT_RXI) != RESET))
 8002b76:	259c      	movs	r5, #156	; 0x9c
 8002b78:	2104      	movs	r1, #4
 8002b7a:	4c24      	ldr	r4, [pc, #144]	; (8002c0c <I2C2_IRQHandler+0x98>)
 8002b7c:	5962      	ldr	r2, [r4, r5]
 8002b7e:	6893      	ldr	r3, [r2, #8]
 8002b80:	681b      	ldr	r3, [r3, #0]
 8002b82:	6998      	ldr	r0, [r3, #24]
 8002b84:	4201      	tst	r1, r0
 8002b86:	d002      	beq.n	8002b8e <I2C2_IRQHandler+0x1a>
 8002b88:	6818      	ldr	r0, [r3, #0]
 8002b8a:	4201      	tst	r1, r0
 8002b8c:	d111      	bne.n	8002bb2 <I2C2_IRQHandler+0x3e>
					my_sys.i2c_line->new_command_is_ready_flag = 1;
			}
		}
		__HAL_I2C_CLEAR_FLAG(my_sys.i2c_line->I2C_line, I2C_FLAG_RXNE);
	}
	if ((I2C_CHECK_FLAG(my_sys.i2c_line->I2C_line->Instance->ISR, I2C_FLAG_ADDR) != RESET) && (I2C_CHECK_IT_SOURCE(my_sys.i2c_line->I2C_line->Instance->CR1, I2C_IT_ADDRI) != RESET))
 8002b8e:	2208      	movs	r2, #8
 8002b90:	6999      	ldr	r1, [r3, #24]
 8002b92:	420a      	tst	r2, r1
 8002b94:	d002      	beq.n	8002b9c <I2C2_IRQHandler+0x28>
 8002b96:	6819      	ldr	r1, [r3, #0]
 8002b98:	420a      	tst	r2, r1
 8002b9a:	d108      	bne.n	8002bae <I2C2_IRQHandler+0x3a>
	{
		// Clear ADDR Flag and turn off line hold
		__HAL_I2C_CLEAR_FLAG(my_sys.i2c_line->I2C_line, I2C_FLAG_ADDR);
	}
	if ((I2C_CHECK_FLAG(my_sys.i2c_line->I2C_line->Instance->ISR, I2C_FLAG_STOPF) != RESET) && (I2C_CHECK_IT_SOURCE(my_sys.i2c_line->I2C_line->Instance->CR1, I2C_IT_STOPI) != RESET))
 8002b9c:	2220      	movs	r2, #32
 8002b9e:	6999      	ldr	r1, [r3, #24]
 8002ba0:	420a      	tst	r2, r1
 8002ba2:	d003      	beq.n	8002bac <I2C2_IRQHandler+0x38>
 8002ba4:	6819      	ldr	r1, [r3, #0]
 8002ba6:	420a      	tst	r2, r1
 8002ba8:	d000      	beq.n	8002bac <I2C2_IRQHandler+0x38>
	{
		// Clear STOP Flag
		__HAL_I2C_CLEAR_FLAG(my_sys.i2c_line->I2C_line, I2C_FLAG_STOPF);
 8002baa:	61da      	str	r2, [r3, #28]
	}
	return;
}
 8002bac:	bd70      	pop	{r4, r5, r6, pc}
		__HAL_I2C_CLEAR_FLAG(my_sys.i2c_line->I2C_line, I2C_FLAG_ADDR);
 8002bae:	61da      	str	r2, [r3, #28]
 8002bb0:	e7f4      	b.n	8002b9c <I2C2_IRQHandler+0x28>
		if(my_sys.i2c_line->buffer_index < I2C_MAX_RECEIVE_LENGTH)
 8002bb2:	7811      	ldrb	r1, [r2, #0]
 8002bb4:	2904      	cmp	r1, #4
 8002bb6:	d820      	bhi.n	8002bfa <I2C2_IRQHandler+0x86>
			my_sys.i2c_line->receiveBuffer[my_sys.i2c_line->buffer_index] = (uint8_t)my_sys.i2c_line->I2C_line->Instance->RXDR;
 8002bb8:	6a58      	ldr	r0, [r3, #36]	; 0x24
 8002bba:	7811      	ldrb	r1, [r2, #0]
 8002bbc:	b2c0      	uxtb	r0, r0
 8002bbe:	1851      	adds	r1, r2, r1
 8002bc0:	7088      	strb	r0, [r1, #2]
			my_sys.i2c_line->buffer_index++;
 8002bc2:	7811      	ldrb	r1, [r2, #0]
 8002bc4:	3101      	adds	r1, #1
 8002bc6:	b2c9      	uxtb	r1, r1
 8002bc8:	7011      	strb	r1, [r2, #0]
			if(my_sys.i2c_line->receiveBuffer[0] < I2C_SET_MULTIPLE_BYTE_COMMAND)
 8002bca:	7891      	ldrb	r1, [r2, #2]
 8002bcc:	2963      	cmp	r1, #99	; 0x63
 8002bce:	d817      	bhi.n	8002c00 <I2C2_IRQHandler+0x8c>
				my_sys.i2c_line->new_command_is_ready_flag = 1;
 8002bd0:	2101      	movs	r1, #1
 8002bd2:	7051      	strb	r1, [r2, #1]
				if(!my_sys.i2c_line->buffer_index && my_sys.i2c_line->receiveBuffer[0] == I2C_PACKET_SEND_DATA_FRAME)
 8002bd4:	7811      	ldrb	r1, [r2, #0]
 8002bd6:	b2ce      	uxtb	r6, r1
 8002bd8:	2900      	cmp	r1, #0
 8002bda:	d10e      	bne.n	8002bfa <I2C2_IRQHandler+0x86>
 8002bdc:	7892      	ldrb	r2, [r2, #2]
 8002bde:	2a0a      	cmp	r2, #10
 8002be0:	d10b      	bne.n	8002bfa <I2C2_IRQHandler+0x86>
						internal_bus_write_data_frame(my_sys.data_bus , my_sys.bus_output_buffer , MODULE_SYSTEM_PACKET_LENGHT);
 8002be2:	23a0      	movs	r3, #160	; 0xa0
 8002be4:	0021      	movs	r1, r4
 8002be6:	58e0      	ldr	r0, [r4, r3]
 8002be8:	3108      	adds	r1, #8
 8002bea:	3217      	adds	r2, #23
 8002bec:	f7ff fb9e 	bl	800232c <internal_bus_write_data_frame>
						my_sys.i2c_line->buffer_index = 0;
 8002bf0:	5963      	ldr	r3, [r4, r5]
 8002bf2:	701e      	strb	r6, [r3, #0]
						my_sys.i2c_line->new_command_is_ready_flag = 0;
 8002bf4:	705e      	strb	r6, [r3, #1]
 8002bf6:	689b      	ldr	r3, [r3, #8]
 8002bf8:	681b      	ldr	r3, [r3, #0]
		__HAL_I2C_CLEAR_FLAG(my_sys.i2c_line->I2C_line, I2C_FLAG_RXNE);
 8002bfa:	2204      	movs	r2, #4
 8002bfc:	61da      	str	r2, [r3, #28]
 8002bfe:	e7c6      	b.n	8002b8e <I2C2_IRQHandler+0x1a>
				if(my_sys.i2c_line->buffer_index == 3)
 8002c00:	7811      	ldrb	r1, [r2, #0]
 8002c02:	2903      	cmp	r1, #3
 8002c04:	d1f9      	bne.n	8002bfa <I2C2_IRQHandler+0x86>
					my_sys.i2c_line->new_command_is_ready_flag = 1;
 8002c06:	3902      	subs	r1, #2
 8002c08:	7051      	strb	r1, [r2, #1]
 8002c0a:	e7f6      	b.n	8002bfa <I2C2_IRQHandler+0x86>
 8002c0c:	200000e4 	.word	0x200000e4

08002c10 <HAL_TIM_PeriodElapsedCallback>:
//---------------------------  tim21 int----------------
void HAL_TIM_PeriodElapsedCallback(TIM_HandleTypeDef *htim)
{
	if (htim == &htim21)
 8002c10:	4b05      	ldr	r3, [pc, #20]	; (8002c28 <HAL_TIM_PeriodElapsedCallback+0x18>)
 8002c12:	4283      	cmp	r3, r0
 8002c14:	d000      	beq.n	8002c18 <HAL_TIM_PeriodElapsedCallback+0x8>
	{
		my_sys.ph_global_timer->overflow_counter++;
	}
}
 8002c16:	4770      	bx	lr
		my_sys.ph_global_timer->overflow_counter++;
 8002c18:	238c      	movs	r3, #140	; 0x8c
 8002c1a:	4a04      	ldr	r2, [pc, #16]	; (8002c2c <HAL_TIM_PeriodElapsedCallback+0x1c>)
 8002c1c:	58d2      	ldr	r2, [r2, r3]
 8002c1e:	7813      	ldrb	r3, [r2, #0]
 8002c20:	3301      	adds	r3, #1
 8002c22:	7013      	strb	r3, [r2, #0]
}
 8002c24:	e7f7      	b.n	8002c16 <HAL_TIM_PeriodElapsedCallback+0x6>
 8002c26:	46c0      	nop			; (mov r8, r8)
 8002c28:	20000228 	.word	0x20000228
 8002c2c:	200000e4 	.word	0x200000e4

08002c30 <module_system_init>:

//----------------------------------
void module_system_init(System *thisSystem)
{
 8002c30:	b5f0      	push	{r4, r5, r6, r7, lr}
 8002c32:	46c6      	mov	lr, r8
	my_sys.data_bus = internal_bus_create(GPIOB,  BUS0_Pin | BUS1_Pin | BUS2_Pin | BUS3_Pin | BUS4_Pin | BUS5_Pin | BUS6_Pin | BUS7_Pin,
 8002c34:	4b2a      	ldr	r3, [pc, #168]	; (8002ce0 <module_system_init+0xb0>)
 8002c36:	24a0      	movs	r4, #160	; 0xa0
 8002c38:	4698      	mov	r8, r3
 8002c3a:	2380      	movs	r3, #128	; 0x80
{
 8002c3c:	b500      	push	{lr}
	my_sys.data_bus = internal_bus_create(GPIOB,  BUS0_Pin | BUS1_Pin | BUS2_Pin | BUS3_Pin | BUS4_Pin | BUS5_Pin | BUS6_Pin | BUS7_Pin,
 8002c3e:	05e4      	lsls	r4, r4, #23
{
 8002c40:	b082      	sub	sp, #8
	my_sys.data_bus = internal_bus_create(GPIOB,  BUS0_Pin | BUS1_Pin | BUS2_Pin | BUS3_Pin | BUS4_Pin | BUS5_Pin | BUS6_Pin | BUS7_Pin,
 8002c42:	01db      	lsls	r3, r3, #7
 8002c44:	0022      	movs	r2, r4
{
 8002c46:	0006      	movs	r6, r0
	my_sys.data_bus = internal_bus_create(GPIOB,  BUS0_Pin | BUS1_Pin | BUS2_Pin | BUS3_Pin | BUS4_Pin | BUS5_Pin | BUS6_Pin | BUS7_Pin,
 8002c48:	21ff      	movs	r1, #255	; 0xff
 8002c4a:	9301      	str	r3, [sp, #4]
 8002c4c:	4640      	mov	r0, r8
 8002c4e:	2301      	movs	r3, #1
 8002c50:	9400      	str	r4, [sp, #0]
 8002c52:	f7ff faab 	bl	80021ac <internal_bus_create>
 8002c56:	23a0      	movs	r3, #160	; 0xa0
 8002c58:	4d22      	ldr	r5, [pc, #136]	; (8002ce4 <module_system_init+0xb4>)

	thisSystem->ph_global_timer = global_timer_create(&htim21);

	HAL_GPIO_WritePin(SPI_A_CS_GPIO_Port, SPI_A_CS_Pin, GPIO_PIN_SET);
	HAL_GPIO_WritePin(SPI_B_CS_GPIO_Port, SPI_B_CS_Pin, GPIO_PIN_SET);
	HAL_GPIO_WritePin(SPI_C_CS_GPIO_Port, SPI_C_CS_Pin, GPIO_PIN_SET);
 8002c5a:	2780      	movs	r7, #128	; 0x80
	my_sys.data_bus = internal_bus_create(GPIOB,  BUS0_Pin | BUS1_Pin | BUS2_Pin | BUS3_Pin | BUS4_Pin | BUS5_Pin | BUS6_Pin | BUS7_Pin,
 8002c5c:	50e8      	str	r0, [r5, r3]
	thisSystem->ph_global_timer = global_timer_create(&htim21);
 8002c5e:	4822      	ldr	r0, [pc, #136]	; (8002ce8 <module_system_init+0xb8>)
 8002c60:	f7ff fc1e 	bl	80024a0 <global_timer_create>
 8002c64:	238c      	movs	r3, #140	; 0x8c
	HAL_GPIO_WritePin(SPI_A_CS_GPIO_Port, SPI_A_CS_Pin, GPIO_PIN_SET);
 8002c66:	2201      	movs	r2, #1
	thisSystem->ph_global_timer = global_timer_create(&htim21);
 8002c68:	50f0      	str	r0, [r6, r3]
	HAL_GPIO_WritePin(SPI_A_CS_GPIO_Port, SPI_A_CS_Pin, GPIO_PIN_SET);
 8002c6a:	2140      	movs	r1, #64	; 0x40
 8002c6c:	0020      	movs	r0, r4
 8002c6e:	f7fe f84b 	bl	8000d08 <HAL_GPIO_WritePin>
	HAL_GPIO_WritePin(SPI_C_CS_GPIO_Port, SPI_C_CS_Pin, GPIO_PIN_SET);
 8002c72:	007f      	lsls	r7, r7, #1
	HAL_GPIO_WritePin(SPI_B_CS_GPIO_Port, SPI_B_CS_Pin, GPIO_PIN_SET);
 8002c74:	0020      	movs	r0, r4
 8002c76:	2201      	movs	r2, #1
 8002c78:	2180      	movs	r1, #128	; 0x80
 8002c7a:	f7fe f845 	bl	8000d08 <HAL_GPIO_WritePin>
	HAL_GPIO_WritePin(SPI_C_CS_GPIO_Port, SPI_C_CS_Pin, GPIO_PIN_SET);
 8002c7e:	2201      	movs	r2, #1
 8002c80:	0039      	movs	r1, r7
 8002c82:	0020      	movs	r0, r4
 8002c84:	f7fe f840 	bl	8000d08 <HAL_GPIO_WritePin>

	my_sys.i2c_line = I2C_interface_create(&hi2c2,100);
 8002c88:	2164      	movs	r1, #100	; 0x64
 8002c8a:	4818      	ldr	r0, [pc, #96]	; (8002cec <module_system_init+0xbc>)
 8002c8c:	f7ff fcd4 	bl	8002638 <I2C_interface_create>
 8002c90:	239c      	movs	r3, #156	; 0x9c
 8002c92:	50e8      	str	r0, [r5, r3]

	// init sensors
	my_sys.sensors[0] = magnetometer_create(MAGNETOMETER_TYPE_MMC5983,&hspi1 , SPI_A_CS_GPIO_Port , SPI_A_CS_Pin , mag_int_a_GPIO_Port , mag_int_a_Pin);
 8002c94:	4643      	mov	r3, r8
 8002c96:	4e16      	ldr	r6, [pc, #88]	; (8002cf0 <module_system_init+0xc0>)
 8002c98:	0022      	movs	r2, r4
 8002c9a:	0031      	movs	r1, r6
 8002c9c:	9300      	str	r3, [sp, #0]
 8002c9e:	9701      	str	r7, [sp, #4]
 8002ca0:	2340      	movs	r3, #64	; 0x40
 8002ca2:	2014      	movs	r0, #20
 8002ca4:	f7ff fc14 	bl	80024d0 <magnetometer_create>
 8002ca8:	2390      	movs	r3, #144	; 0x90
 8002caa:	50e8      	str	r0, [r5, r3]
	my_sys.sensors[1] = magnetometer_create(MAGNETOMETER_TYPE_MMC5983,&hspi1 , SPI_B_CS_GPIO_Port , SPI_B_CS_Pin , mag_int_b_GPIO_Port , mag_int_b_Pin);
 8002cac:	3b88      	subs	r3, #136	; 0x88
 8002cae:	0022      	movs	r2, r4
 8002cb0:	0031      	movs	r1, r6
 8002cb2:	9301      	str	r3, [sp, #4]
 8002cb4:	9400      	str	r4, [sp, #0]
 8002cb6:	3378      	adds	r3, #120	; 0x78
 8002cb8:	2014      	movs	r0, #20
 8002cba:	f7ff fc09 	bl	80024d0 <magnetometer_create>
 8002cbe:	2394      	movs	r3, #148	; 0x94
 8002cc0:	50e8      	str	r0, [r5, r3]
	my_sys.sensors[2] = magnetometer_create(MAGNETOMETER_TYPE_MMC5983,&hspi1 , SPI_C_CS_GPIO_Port , SPI_C_CS_Pin , mag_int_c_GPIO_Port , mag_int_c_Pin);
 8002cc2:	3b84      	subs	r3, #132	; 0x84
 8002cc4:	9301      	str	r3, [sp, #4]
 8002cc6:	0022      	movs	r2, r4
 8002cc8:	003b      	movs	r3, r7
 8002cca:	0031      	movs	r1, r6
 8002ccc:	9400      	str	r4, [sp, #0]
 8002cce:	2014      	movs	r0, #20
 8002cd0:	f7ff fbfe 	bl	80024d0 <magnetometer_create>
 8002cd4:	2398      	movs	r3, #152	; 0x98
 8002cd6:	50e8      	str	r0, [r5, r3]

	return;
}
 8002cd8:	b002      	add	sp, #8
 8002cda:	bc80      	pop	{r7}
 8002cdc:	46b8      	mov	r8, r7
 8002cde:	bdf0      	pop	{r4, r5, r6, r7, pc}
 8002ce0:	50000400 	.word	0x50000400
 8002ce4:	200000e4 	.word	0x200000e4
 8002ce8:	20000228 	.word	0x20000228
 8002cec:	20000098 	.word	0x20000098
 8002cf0:	200001d0 	.word	0x200001d0

08002cf4 <state_machine>:

void state_machine(System *thisSystem)
{
 8002cf4:	b5f0      	push	{r4, r5, r6, r7, lr}
 8002cf6:	4657      	mov	r7, sl
 8002cf8:	464e      	mov	r6, r9
 8002cfa:	4645      	mov	r5, r8
 8002cfc:	46de      	mov	lr, fp
 8002cfe:	4680      	mov	r8, r0
 8002d00:	2290      	movs	r2, #144	; 0x90
 8002d02:	b5e0      	push	{r5, r6, r7, lr}
 8002d04:	4442      	add	r2, r8
 8002d06:	b083      	sub	sp, #12
 8002d08:	9201      	str	r2, [sp, #4]
			b_read_permit =0;
		}
		//------------------------------------------
		if(my_sys.i2c_line->new_command_is_ready_flag)
		{
			switch(my_sys.i2c_line->receiveBuffer[0])
 8002d0a:	2200      	movs	r2, #0
 8002d0c:	239c      	movs	r3, #156	; 0x9c
 8002d0e:	0006      	movs	r6, r0
 8002d10:	4692      	mov	sl, r2
 8002d12:	4fe0      	ldr	r7, [pc, #896]	; (8003094 <state_machine+0x3a0>)
 8002d14:	369c      	adds	r6, #156	; 0x9c
 8002d16:	58fb      	ldr	r3, [r7, r3]
		if(my_sys.i2c_line->new_command_is_ready_flag)
 8002d18:	785a      	ldrb	r2, [r3, #1]
 8002d1a:	2a00      	cmp	r2, #0
 8002d1c:	d0fc      	beq.n	8002d18 <state_machine+0x24>
			switch(my_sys.i2c_line->receiveBuffer[0])
 8002d1e:	789a      	ldrb	r2, [r3, #2]
 8002d20:	3a0a      	subs	r2, #10
 8002d22:	b2d2      	uxtb	r2, r2
 8002d24:	2a5e      	cmp	r2, #94	; 0x5e
 8002d26:	d803      	bhi.n	8002d30 <state_machine+0x3c>
 8002d28:	49db      	ldr	r1, [pc, #876]	; (8003098 <state_machine+0x3a4>)
 8002d2a:	0092      	lsls	r2, r2, #2
 8002d2c:	588a      	ldr	r2, [r1, r2]
 8002d2e:	4697      	mov	pc, r2
 8002d30:	2000      	movs	r0, #0
					magnetometer_direct_register_write(thisSystem->sensors[2]->magnetometer,(uint8_t)my_sys.i2c_line->receiveBuffer[1],(uint8_t)my_sys.i2c_line->receiveBuffer[2]);
					break;
				}
			}
			//-------- if we get any data higher than 0x80 in the first byte it mean it is a new address
			if ( thisSystem->i2c_line->receiveBuffer[0] > I2C_PACKET_SET_NEW_ADDRESS )
 8002d32:	4641      	mov	r1, r8
 8002d34:	229c      	movs	r2, #156	; 0x9c
 8002d36:	588a      	ldr	r2, [r1, r2]
 8002d38:	7891      	ldrb	r1, [r2, #2]
 8002d3a:	2980      	cmp	r1, #128	; 0x80
 8002d3c:	d916      	bls.n	8002d6c <state_machine+0x78>
			{
				__HAL_I2C_DISABLE_IT(thisSystem->i2c_line->I2C_line, I2C_IT_RXI | I2C_IT_STOPI | I2C_IT_ADDRI);
 8002d3e:	242c      	movs	r4, #44	; 0x2c
 8002d40:	6892      	ldr	r2, [r2, #8]
 8002d42:	6812      	ldr	r2, [r2, #0]
 8002d44:	6811      	ldr	r1, [r2, #0]
 8002d46:	43a1      	bics	r1, r4
 8002d48:	6011      	str	r1, [r2, #0]
				uint8_t i2c_new_address =  (uint8_t)my_sys.i2c_line->receiveBuffer[0] & 0x7f;
 8002d4a:	7899      	ldrb	r1, [r3, #2]
				thisSystem->i2c_line->I2C_line->Instance->OAR1 &= ~I2C_OAR1_OA1EN;
 8002d4c:	6895      	ldr	r5, [r2, #8]
				uint8_t i2c_new_address =  (uint8_t)my_sys.i2c_line->receiveBuffer[0] & 0x7f;
 8002d4e:	468c      	mov	ip, r1
				thisSystem->i2c_line->I2C_line->Instance->OAR1 &= ~I2C_OAR1_OA1EN;
 8002d50:	49d2      	ldr	r1, [pc, #840]	; (800309c <state_machine+0x3a8>)
 8002d52:	400d      	ands	r5, r1
 8002d54:	6095      	str	r5, [r2, #8]
				thisSystem->i2c_line->I2C_line->Instance->OAR1 = (I2C_OAR1_OA1EN | ( i2c_new_address << 1) );
 8002d56:	217f      	movs	r1, #127	; 0x7f
 8002d58:	4665      	mov	r5, ip
 8002d5a:	4029      	ands	r1, r5
 8002d5c:	2580      	movs	r5, #128	; 0x80
 8002d5e:	0049      	lsls	r1, r1, #1
 8002d60:	022d      	lsls	r5, r5, #8
 8002d62:	4329      	orrs	r1, r5
 8002d64:	6091      	str	r1, [r2, #8]
				__HAL_I2C_ENABLE_IT(thisSystem->i2c_line->I2C_line, I2C_IT_RXI | I2C_IT_STOPI | I2C_IT_ADDRI);
 8002d66:	6811      	ldr	r1, [r2, #0]
 8002d68:	4321      	orrs	r1, r4
 8002d6a:	6011      	str	r1, [r2, #0]
			}
		my_sys.i2c_line->buffer_index =0;
 8002d6c:	4652      	mov	r2, sl
 8002d6e:	701a      	strb	r2, [r3, #0]
		my_sys.i2c_line->new_command_is_ready_flag = 0;
 8002d70:	705a      	strb	r2, [r3, #1]
		if(b_read_permit)
 8002d72:	2800      	cmp	r0, #0
 8002d74:	d0d0      	beq.n	8002d18 <state_machine+0x24>
							my_sys.bus_output_buffer[byte_shifter + sensor_num * 11] = (uint32_t)(thisSystem->data_bus->bus_mask & this_byte)  | ((thisSystem->data_bus->bus_mask & ~this_byte)  << 16);
 8002d76:	23a0      	movs	r3, #160	; 0xa0
 8002d78:	469b      	mov	fp, r3
 8002d7a:	9c01      	ldr	r4, [sp, #4]
 8002d7c:	4dc8      	ldr	r5, [pc, #800]	; (80030a0 <state_machine+0x3ac>)
				if( (thisSystem->sensors[sensor_num]->sensor_status == MAGNETOMETER_OK) & thisSystem->sensors[sensor_num]->b_new_data_needed)
 8002d7e:	6820      	ldr	r0, [r4, #0]
 8002d80:	7e03      	ldrb	r3, [r0, #24]
 8002d82:	3b51      	subs	r3, #81	; 0x51
 8002d84:	425a      	negs	r2, r3
 8002d86:	4153      	adcs	r3, r2
 8002d88:	7cc2      	ldrb	r2, [r0, #19]
 8002d8a:	421a      	tst	r2, r3
 8002d8c:	d000      	beq.n	8002d90 <state_machine+0x9c>
 8002d8e:	e0c5      	b.n	8002f1c <state_machine+0x228>
			for (uint8_t sensor_num = 0; sensor_num < MODULE_SYSTEM_NUM_SENSORS; sensor_num++)
 8002d90:	3404      	adds	r4, #4
 8002d92:	352c      	adds	r5, #44	; 0x2c
 8002d94:	42a6      	cmp	r6, r4
 8002d96:	d1f2      	bne.n	8002d7e <state_machine+0x8a>
 8002d98:	239c      	movs	r3, #156	; 0x9c
 8002d9a:	58fb      	ldr	r3, [r7, r3]
 8002d9c:	e7bc      	b.n	8002d18 <state_machine+0x24>
					magnetometer_direct_register_write(thisSystem->sensors[2]->magnetometer,(uint8_t)my_sys.i2c_line->receiveBuffer[1],(uint8_t)my_sys.i2c_line->receiveBuffer[2]);
 8002d9e:	78d9      	ldrb	r1, [r3, #3]
 8002da0:	791a      	ldrb	r2, [r3, #4]
 8002da2:	2398      	movs	r3, #152	; 0x98
 8002da4:	b2c9      	uxtb	r1, r1
 8002da6:	b2d2      	uxtb	r2, r2
 8002da8:	4640      	mov	r0, r8
 8002daa:	58c4      	ldr	r4, [r0, r3]
 8002dac:	78a3      	ldrb	r3, [r4, #2]
 8002dae:	7860      	ldrb	r0, [r4, #1]
 8002db0:	021b      	lsls	r3, r3, #8
 8002db2:	4303      	orrs	r3, r0
 8002db4:	78e0      	ldrb	r0, [r4, #3]
 8002db6:	0400      	lsls	r0, r0, #16
 8002db8:	4303      	orrs	r3, r0
 8002dba:	7920      	ldrb	r0, [r4, #4]
 8002dbc:	0600      	lsls	r0, r0, #24
 8002dbe:	4318      	orrs	r0, r3
 8002dc0:	f7ff fc18 	bl	80025f4 <magnetometer_direct_register_write>
					break;
 8002dc4:	239c      	movs	r3, #156	; 0x9c
 8002dc6:	2000      	movs	r0, #0
 8002dc8:	58fb      	ldr	r3, [r7, r3]
 8002dca:	e7b2      	b.n	8002d32 <state_machine+0x3e>
					magnetometer_direct_register_write(thisSystem->sensors[1]->magnetometer,(uint8_t)my_sys.i2c_line->receiveBuffer[1],(uint8_t)my_sys.i2c_line->receiveBuffer[2]);
 8002dcc:	78d9      	ldrb	r1, [r3, #3]
 8002dce:	791a      	ldrb	r2, [r3, #4]
 8002dd0:	b2c9      	uxtb	r1, r1
 8002dd2:	2394      	movs	r3, #148	; 0x94
 8002dd4:	b2d2      	uxtb	r2, r2
 8002dd6:	e7e7      	b.n	8002da8 <state_machine+0xb4>
					magnetometer_direct_register_write(thisSystem->sensors[0]->magnetometer,(uint8_t)my_sys.i2c_line->receiveBuffer[1],(uint8_t)my_sys.i2c_line->receiveBuffer[2]);
 8002dd8:	78d9      	ldrb	r1, [r3, #3]
 8002dda:	791a      	ldrb	r2, [r3, #4]
 8002ddc:	b2c9      	uxtb	r1, r1
 8002dde:	2390      	movs	r3, #144	; 0x90
 8002de0:	b2d2      	uxtb	r2, r2
 8002de2:	e7e1      	b.n	8002da8 <state_machine+0xb4>
					magnetometer_direct_register_write(thisSystem->sensors[0]->magnetometer,(uint8_t)my_sys.i2c_line->receiveBuffer[1],(uint8_t)my_sys.i2c_line->receiveBuffer[2]);
 8002de4:	78d9      	ldrb	r1, [r3, #3]
 8002de6:	4640      	mov	r0, r8
 8002de8:	791a      	ldrb	r2, [r3, #4]
 8002dea:	2390      	movs	r3, #144	; 0x90
 8002dec:	58c4      	ldr	r4, [r0, r3]
 8002dee:	b2c9      	uxtb	r1, r1
 8002df0:	78a3      	ldrb	r3, [r4, #2]
 8002df2:	7860      	ldrb	r0, [r4, #1]
 8002df4:	021b      	lsls	r3, r3, #8
 8002df6:	4303      	orrs	r3, r0
 8002df8:	78e0      	ldrb	r0, [r4, #3]
 8002dfa:	b2d2      	uxtb	r2, r2
 8002dfc:	0400      	lsls	r0, r0, #16
 8002dfe:	4303      	orrs	r3, r0
 8002e00:	7920      	ldrb	r0, [r4, #4]
					magnetometer_direct_register_write(thisSystem->sensors[1]->magnetometer,(uint8_t)my_sys.i2c_line->receiveBuffer[1],(uint8_t)my_sys.i2c_line->receiveBuffer[2]);
 8002e02:	249c      	movs	r4, #156	; 0x9c
					magnetometer_direct_register_write(thisSystem->sensors[0]->magnetometer,(uint8_t)my_sys.i2c_line->receiveBuffer[1],(uint8_t)my_sys.i2c_line->receiveBuffer[2]);
 8002e04:	0600      	lsls	r0, r0, #24
 8002e06:	4318      	orrs	r0, r3
 8002e08:	f7ff fbf4 	bl	80025f4 <magnetometer_direct_register_write>
					magnetometer_direct_register_write(thisSystem->sensors[1]->magnetometer,(uint8_t)my_sys.i2c_line->receiveBuffer[1],(uint8_t)my_sys.i2c_line->receiveBuffer[2]);
 8002e0c:	593b      	ldr	r3, [r7, r4]
 8002e0e:	4640      	mov	r0, r8
 8002e10:	78d9      	ldrb	r1, [r3, #3]
 8002e12:	791a      	ldrb	r2, [r3, #4]
 8002e14:	2394      	movs	r3, #148	; 0x94
 8002e16:	58c5      	ldr	r5, [r0, r3]
 8002e18:	b2c9      	uxtb	r1, r1
 8002e1a:	78ab      	ldrb	r3, [r5, #2]
 8002e1c:	7868      	ldrb	r0, [r5, #1]
 8002e1e:	021b      	lsls	r3, r3, #8
 8002e20:	4303      	orrs	r3, r0
 8002e22:	78e8      	ldrb	r0, [r5, #3]
 8002e24:	b2d2      	uxtb	r2, r2
 8002e26:	0400      	lsls	r0, r0, #16
 8002e28:	4303      	orrs	r3, r0
 8002e2a:	7928      	ldrb	r0, [r5, #4]
 8002e2c:	0600      	lsls	r0, r0, #24
 8002e2e:	4318      	orrs	r0, r3
 8002e30:	f7ff fbe0 	bl	80025f4 <magnetometer_direct_register_write>
					magnetometer_direct_register_write(thisSystem->sensors[2]->magnetometer,(uint8_t)my_sys.i2c_line->receiveBuffer[1],(uint8_t)my_sys.i2c_line->receiveBuffer[2]);
 8002e34:	593b      	ldr	r3, [r7, r4]
 8002e36:	4640      	mov	r0, r8
 8002e38:	78d9      	ldrb	r1, [r3, #3]
 8002e3a:	791a      	ldrb	r2, [r3, #4]
 8002e3c:	2398      	movs	r3, #152	; 0x98
 8002e3e:	58c5      	ldr	r5, [r0, r3]
 8002e40:	b2c9      	uxtb	r1, r1
 8002e42:	78ab      	ldrb	r3, [r5, #2]
 8002e44:	7868      	ldrb	r0, [r5, #1]
 8002e46:	021b      	lsls	r3, r3, #8
 8002e48:	4303      	orrs	r3, r0
 8002e4a:	78e8      	ldrb	r0, [r5, #3]
 8002e4c:	b2d2      	uxtb	r2, r2
 8002e4e:	0400      	lsls	r0, r0, #16
 8002e50:	4303      	orrs	r3, r0
 8002e52:	7928      	ldrb	r0, [r5, #4]
 8002e54:	0600      	lsls	r0, r0, #24
 8002e56:	4318      	orrs	r0, r3
 8002e58:	f7ff fbcc 	bl	80025f4 <magnetometer_direct_register_write>
					break;
 8002e5c:	2000      	movs	r0, #0
 8002e5e:	593b      	ldr	r3, [r7, r4]
 8002e60:	e767      	b.n	8002d32 <state_machine+0x3e>
					if(my_sys.sensors[0]->sensor_status == MAGNETOMETER_FAULTY )
 8002e62:	2390      	movs	r3, #144	; 0x90
 8002e64:	58fb      	ldr	r3, [r7, r3]
 8002e66:	7e1b      	ldrb	r3, [r3, #24]
 8002e68:	2b50      	cmp	r3, #80	; 0x50
 8002e6a:	d100      	bne.n	8002e6e <state_machine+0x17a>
 8002e6c:	e0ff      	b.n	800306e <state_machine+0x37a>
					if(my_sys.sensors[1]->sensor_status == MAGNETOMETER_FAULTY )
 8002e6e:	2394      	movs	r3, #148	; 0x94
 8002e70:	58fb      	ldr	r3, [r7, r3]
 8002e72:	7e1b      	ldrb	r3, [r3, #24]
 8002e74:	2b50      	cmp	r3, #80	; 0x50
 8002e76:	d100      	bne.n	8002e7a <state_machine+0x186>
 8002e78:	e0e6      	b.n	8003048 <state_machine+0x354>
					if(my_sys.sensors[2]->sensor_status == MAGNETOMETER_FAULTY )
 8002e7a:	2398      	movs	r3, #152	; 0x98
 8002e7c:	58fb      	ldr	r3, [r7, r3]
 8002e7e:	7e1b      	ldrb	r3, [r3, #24]
 8002e80:	2b50      	cmp	r3, #80	; 0x50
 8002e82:	d100      	bne.n	8002e86 <state_machine+0x192>
 8002e84:	e0cb      	b.n	800301e <state_machine+0x32a>
					HAL_SuspendTick();
 8002e86:	f7fd fdef 	bl	8000a68 <HAL_SuspendTick>
					break;
 8002e8a:	239c      	movs	r3, #156	; 0x9c
 8002e8c:	2000      	movs	r0, #0
 8002e8e:	58fb      	ldr	r3, [r7, r3]
 8002e90:	e74f      	b.n	8002d32 <state_machine+0x3e>
					thisSystem->ph_global_timer->h_timer->Instance->CNT = 0;
 8002e92:	4641      	mov	r1, r8
 8002e94:	228c      	movs	r2, #140	; 0x8c
 8002e96:	4650      	mov	r0, sl
 8002e98:	588a      	ldr	r2, [r1, r2]
 8002e9a:	6851      	ldr	r1, [r2, #4]
 8002e9c:	6809      	ldr	r1, [r1, #0]
 8002e9e:	6248      	str	r0, [r1, #36]	; 0x24
					thisSystem->ph_global_timer->overflow_counter = 0;
 8002ea0:	7010      	strb	r0, [r2, #0]
					break;
 8002ea2:	2000      	movs	r0, #0
 8002ea4:	e745      	b.n	8002d32 <state_machine+0x3e>
					  HAL_GPIO_WritePin(SPI_B_CS_GPIO_Port, SPI_B_CS_Pin, GPIO_PIN_RESET);
 8002ea6:	2200      	movs	r2, #0
 8002ea8:	2180      	movs	r1, #128	; 0x80
					  HAL_GPIO_WritePin(SPI_C_CS_GPIO_Port, SPI_C_CS_Pin, GPIO_PIN_SET);
 8002eaa:	20a0      	movs	r0, #160	; 0xa0
 8002eac:	05c0      	lsls	r0, r0, #23
 8002eae:	f7fd ff2b 	bl	8000d08 <HAL_GPIO_WritePin>
					break;
 8002eb2:	239c      	movs	r3, #156	; 0x9c
 8002eb4:	2000      	movs	r0, #0
 8002eb6:	58fb      	ldr	r3, [r7, r3]
 8002eb8:	e73b      	b.n	8002d32 <state_machine+0x3e>
					  HAL_GPIO_WritePin(SPI_A_CS_GPIO_Port, SPI_A_CS_Pin, GPIO_PIN_SET);
 8002eba:	2201      	movs	r2, #1
 8002ebc:	2140      	movs	r1, #64	; 0x40
 8002ebe:	e7f4      	b.n	8002eaa <state_machine+0x1b6>
					  HAL_GPIO_WritePin(SPI_B_CS_GPIO_Port, SPI_B_CS_Pin, GPIO_PIN_SET);
 8002ec0:	2201      	movs	r2, #1
 8002ec2:	2180      	movs	r1, #128	; 0x80
 8002ec4:	e7f1      	b.n	8002eaa <state_machine+0x1b6>
					  HAL_GPIO_WritePin(SPI_A_CS_GPIO_Port, SPI_A_CS_Pin, GPIO_PIN_RESET);
 8002ec6:	2200      	movs	r2, #0
 8002ec8:	2140      	movs	r1, #64	; 0x40
 8002eca:	e7ee      	b.n	8002eaa <state_machine+0x1b6>
					  HAL_GPIO_WritePin(SPI_C_CS_GPIO_Port, SPI_C_CS_Pin, GPIO_PIN_SET);
 8002ecc:	2201      	movs	r2, #1
 8002ece:	2180      	movs	r1, #128	; 0x80
 8002ed0:	0049      	lsls	r1, r1, #1
 8002ed2:	e7ea      	b.n	8002eaa <state_machine+0x1b6>
					  HAL_GPIO_WritePin(SPI_C_CS_GPIO_Port, SPI_C_CS_Pin, GPIO_PIN_RESET);
 8002ed4:	2200      	movs	r2, #0
 8002ed6:	e7fa      	b.n	8002ece <state_machine+0x1da>
					 HAL_GPIO_WritePin(CHN_OUT_RST_GPIO_Port, CHN_OUT_RST_Pin, GPIO_PIN_SET);
 8002ed8:	2180      	movs	r1, #128	; 0x80
 8002eda:	2201      	movs	r2, #1
 8002edc:	01c9      	lsls	r1, r1, #7
					  HAL_GPIO_WritePin(CHN_OUT_BT0_GPIO_Port, CHN_OUT_BT0_Pin, GPIO_PIN_SET);
 8002ede:	4871      	ldr	r0, [pc, #452]	; (80030a4 <state_machine+0x3b0>)
 8002ee0:	f7fd ff12 	bl	8000d08 <HAL_GPIO_WritePin>
					break;
 8002ee4:	239c      	movs	r3, #156	; 0x9c
 8002ee6:	2000      	movs	r0, #0
 8002ee8:	58fb      	ldr	r3, [r7, r3]
 8002eea:	e722      	b.n	8002d32 <state_machine+0x3e>
					  HAL_GPIO_WritePin(CHN_OUT_RST_GPIO_Port, CHN_OUT_RST_Pin, GPIO_PIN_RESET);
 8002eec:	2180      	movs	r1, #128	; 0x80
 8002eee:	2200      	movs	r2, #0
 8002ef0:	01c9      	lsls	r1, r1, #7
 8002ef2:	e7f4      	b.n	8002ede <state_machine+0x1ea>
					  HAL_GPIO_WritePin(CHN_OUT_BT0_GPIO_Port, CHN_OUT_BT0_Pin, GPIO_PIN_SET);
 8002ef4:	2201      	movs	r2, #1
 8002ef6:	2180      	movs	r1, #128	; 0x80
 8002ef8:	0209      	lsls	r1, r1, #8
 8002efa:	e7f0      	b.n	8002ede <state_machine+0x1ea>
					  HAL_GPIO_WritePin(CHN_OUT_BT0_GPIO_Port, CHN_OUT_BT0_Pin, GPIO_PIN_RESET);
 8002efc:	2200      	movs	r2, #0
 8002efe:	e7fa      	b.n	8002ef6 <state_machine+0x202>
					my_sys.sensors[0]->b_new_data_needed = 1;
 8002f00:	2290      	movs	r2, #144	; 0x90
 8002f02:	58b9      	ldr	r1, [r7, r2]
 8002f04:	3a8f      	subs	r2, #143	; 0x8f
 8002f06:	74ca      	strb	r2, [r1, #19]
					my_sys.sensors[1]->b_new_data_needed = 1;
 8002f08:	2194      	movs	r1, #148	; 0x94
 8002f0a:	5879      	ldr	r1, [r7, r1]
					break;
 8002f0c:	2000      	movs	r0, #0
					my_sys.sensors[1]->b_new_data_needed = 1;
 8002f0e:	74ca      	strb	r2, [r1, #19]
					my_sys.sensors[2]->b_new_data_needed = 1;
 8002f10:	2198      	movs	r1, #152	; 0x98
 8002f12:	5879      	ldr	r1, [r7, r1]
 8002f14:	74ca      	strb	r2, [r1, #19]
					break;
 8002f16:	e70c      	b.n	8002d32 <state_machine+0x3e>
			switch(my_sys.i2c_line->receiveBuffer[0])
 8002f18:	2001      	movs	r0, #1
 8002f1a:	e70a      	b.n	8002d32 <state_machine+0x3e>
					if(magnetometer_read(thisSystem->sensors[sensor_num]))
 8002f1c:	f7ff fb46 	bl	80025ac <magnetometer_read>
 8002f20:	2800      	cmp	r0, #0
 8002f22:	d100      	bne.n	8002f26 <state_machine+0x232>
 8002f24:	e734      	b.n	8002d90 <state_machine+0x9c>
							my_sys.bus_output_buffer[byte_shifter + sensor_num * 11] = (uint32_t)(thisSystem->data_bus->bus_mask & this_byte)  | ((thisSystem->data_bus->bus_mask & ~this_byte)  << 16);
 8002f26:	4659      	mov	r1, fp
 8002f28:	4643      	mov	r3, r8
 8002f2a:	585b      	ldr	r3, [r3, r1]
							this_byte = *(((uint8_t*)&thisSystem->sensors[sensor_num]->time_stamp) + byte_shifter);
 8002f2c:	6822      	ldr	r2, [r4, #0]
							my_sys.bus_output_buffer[byte_shifter + sensor_num * 11] = (uint32_t)(thisSystem->data_bus->bus_mask & this_byte)  | ((thisSystem->data_bus->bus_mask & ~this_byte)  << 16);
 8002f2e:	889b      	ldrh	r3, [r3, #4]
 8002f30:	7ad0      	ldrb	r0, [r2, #11]
 8002f32:	0019      	movs	r1, r3
 8002f34:	4381      	bics	r1, r0
 8002f36:	0409      	lsls	r1, r1, #16
 8002f38:	4018      	ands	r0, r3
 8002f3a:	4301      	orrs	r1, r0
 8002f3c:	6029      	str	r1, [r5, #0]
 8002f3e:	0019      	movs	r1, r3
 8002f40:	7b10      	ldrb	r0, [r2, #12]
 8002f42:	4381      	bics	r1, r0
 8002f44:	0409      	lsls	r1, r1, #16
 8002f46:	4018      	ands	r0, r3
 8002f48:	4301      	orrs	r1, r0
 8002f4a:	6069      	str	r1, [r5, #4]
 8002f4c:	0019      	movs	r1, r3
 8002f4e:	7b50      	ldrb	r0, [r2, #13]
 8002f50:	4381      	bics	r1, r0
 8002f52:	0409      	lsls	r1, r1, #16
 8002f54:	4018      	ands	r0, r3
 8002f56:	4301      	orrs	r1, r0
 8002f58:	60a9      	str	r1, [r5, #8]
 8002f5a:	0019      	movs	r1, r3
 8002f5c:	7b90      	ldrb	r0, [r2, #14]
 8002f5e:	4381      	bics	r1, r0
 8002f60:	0409      	lsls	r1, r1, #16
 8002f62:	4018      	ands	r0, r3
 8002f64:	4301      	orrs	r1, r0
 8002f66:	60e9      	str	r1, [r5, #12]
 8002f68:	0019      	movs	r1, r3
 8002f6a:	7bd0      	ldrb	r0, [r2, #15]
 8002f6c:	4381      	bics	r1, r0
 8002f6e:	0409      	lsls	r1, r1, #16
 8002f70:	4018      	ands	r0, r3
 8002f72:	4301      	orrs	r1, r0
 8002f74:	6129      	str	r1, [r5, #16]
							my_sys.bus_output_buffer[byte_shifter + sensor_num * 11] = (uint32_t)(thisSystem->data_bus->bus_mask & this_byte)  | ((thisSystem->data_bus->bus_mask & ~this_byte)  << 16);
 8002f76:	0019      	movs	r1, r3
 8002f78:	7950      	ldrb	r0, [r2, #5]
 8002f7a:	4381      	bics	r1, r0
 8002f7c:	0409      	lsls	r1, r1, #16
 8002f7e:	4018      	ands	r0, r3
 8002f80:	4301      	orrs	r1, r0
 8002f82:	6169      	str	r1, [r5, #20]
 8002f84:	0019      	movs	r1, r3
 8002f86:	7990      	ldrb	r0, [r2, #6]
 8002f88:	4381      	bics	r1, r0
 8002f8a:	0409      	lsls	r1, r1, #16
 8002f8c:	4018      	ands	r0, r3
 8002f8e:	4301      	orrs	r1, r0
 8002f90:	61a9      	str	r1, [r5, #24]
 8002f92:	0019      	movs	r1, r3
 8002f94:	79d0      	ldrb	r0, [r2, #7]
 8002f96:	4381      	bics	r1, r0
 8002f98:	0409      	lsls	r1, r1, #16
 8002f9a:	4018      	ands	r0, r3
 8002f9c:	4301      	orrs	r1, r0
 8002f9e:	61e9      	str	r1, [r5, #28]
 8002fa0:	0019      	movs	r1, r3
 8002fa2:	7a10      	ldrb	r0, [r2, #8]
 8002fa4:	4381      	bics	r1, r0
 8002fa6:	0409      	lsls	r1, r1, #16
 8002fa8:	4018      	ands	r0, r3
 8002faa:	4301      	orrs	r1, r0
 8002fac:	6229      	str	r1, [r5, #32]
 8002fae:	0019      	movs	r1, r3
 8002fb0:	7a50      	ldrb	r0, [r2, #9]
 8002fb2:	4381      	bics	r1, r0
 8002fb4:	0409      	lsls	r1, r1, #16
 8002fb6:	4018      	ands	r0, r3
 8002fb8:	4301      	orrs	r1, r0
 8002fba:	6269      	str	r1, [r5, #36]	; 0x24
 8002fbc:	0019      	movs	r1, r3
 8002fbe:	7a90      	ldrb	r0, [r2, #10]
 8002fc0:	4381      	bics	r1, r0
 8002fc2:	0409      	lsls	r1, r1, #16
 8002fc4:	4003      	ands	r3, r0
 8002fc6:	430b      	orrs	r3, r1
 8002fc8:	62ab      	str	r3, [r5, #40]	; 0x28
						thisSystem->sensors[sensor_num]->b_new_data_needed = 0;
 8002fca:	4653      	mov	r3, sl
 8002fcc:	74d3      	strb	r3, [r2, #19]
						MMC5983_register_write((MMC5983_t*)thisSystem->sensors[sensor_num]->magnetometer, MMC5983_INTERNALCONTROL0, MMC5983_CTRL0_TM_M);
 8002fce:	7893      	ldrb	r3, [r2, #2]
 8002fd0:	7850      	ldrb	r0, [r2, #1]
 8002fd2:	021b      	lsls	r3, r3, #8
 8002fd4:	4303      	orrs	r3, r0
 8002fd6:	78d0      	ldrb	r0, [r2, #3]
 8002fd8:	2109      	movs	r1, #9
 8002fda:	0400      	lsls	r0, r0, #16
 8002fdc:	4303      	orrs	r3, r0
 8002fde:	7910      	ldrb	r0, [r2, #4]
 8002fe0:	2201      	movs	r2, #1
 8002fe2:	0600      	lsls	r0, r0, #24
 8002fe4:	4318      	orrs	r0, r3
 8002fe6:	f7ff fce9 	bl	80029bc <MMC5983_register_write>
						thisSystem->sensors[sensor_num]->time_stamp = get_global_timer(thisSystem->ph_global_timer);
 8002fea:	6823      	ldr	r3, [r4, #0]
 8002fec:	228c      	movs	r2, #140	; 0x8c
 8002fee:	4699      	mov	r9, r3
 8002ff0:	4643      	mov	r3, r8
 8002ff2:	589b      	ldr	r3, [r3, r2]
 8002ff4:	0018      	movs	r0, r3
 8002ff6:	9300      	str	r3, [sp, #0]
 8002ff8:	f7ff fa60 	bl	80024bc <get_global_timer>
 8002ffc:	464b      	mov	r3, r9
 8002ffe:	0a02      	lsrs	r2, r0, #8
 8003000:	731a      	strb	r2, [r3, #12]
 8003002:	0c02      	lsrs	r2, r0, #16
 8003004:	735a      	strb	r2, [r3, #13]
 8003006:	0a0a      	lsrs	r2, r1, #8
 8003008:	741a      	strb	r2, [r3, #16]
 800300a:	020a      	lsls	r2, r1, #8
 800300c:	72d8      	strb	r0, [r3, #11]
 800300e:	73d9      	strb	r1, [r3, #15]
 8003010:	0e00      	lsrs	r0, r0, #24
 8003012:	0e12      	lsrs	r2, r2, #24
 8003014:	0e09      	lsrs	r1, r1, #24
 8003016:	7398      	strb	r0, [r3, #14]
 8003018:	745a      	strb	r2, [r3, #17]
 800301a:	7499      	strb	r1, [r3, #18]
 800301c:	e6b8      	b.n	8002d90 <state_machine+0x9c>
						HAL_GPIO_WritePin(SPI_C_CS_GPIO_Port, SPI_C_CS_Pin, GPIO_PIN_RESET);
 800301e:	2180      	movs	r1, #128	; 0x80
 8003020:	20a0      	movs	r0, #160	; 0xa0
 8003022:	2200      	movs	r2, #0
 8003024:	0049      	lsls	r1, r1, #1
 8003026:	05c0      	lsls	r0, r0, #23
 8003028:	f7fd fe6e 	bl	8000d08 <HAL_GPIO_WritePin>
						HAL_Delay(200);
 800302c:	20c8      	movs	r0, #200	; 0xc8
 800302e:	f7fd fd09 	bl	8000a44 <HAL_Delay>
						HAL_GPIO_WritePin(SPI_C_CS_GPIO_Port, SPI_C_CS_Pin, GPIO_PIN_SET);
 8003032:	2180      	movs	r1, #128	; 0x80
 8003034:	20a0      	movs	r0, #160	; 0xa0
 8003036:	2201      	movs	r2, #1
 8003038:	0049      	lsls	r1, r1, #1
 800303a:	05c0      	lsls	r0, r0, #23
 800303c:	f7fd fe64 	bl	8000d08 <HAL_GPIO_WritePin>
						HAL_Delay(250);
 8003040:	20fa      	movs	r0, #250	; 0xfa
 8003042:	f7fd fcff 	bl	8000a44 <HAL_Delay>
 8003046:	e71e      	b.n	8002e86 <state_machine+0x192>
						HAL_GPIO_WritePin(SPI_B_CS_GPIO_Port, SPI_B_CS_Pin, GPIO_PIN_RESET);
 8003048:	20a0      	movs	r0, #160	; 0xa0
 800304a:	2200      	movs	r2, #0
 800304c:	2180      	movs	r1, #128	; 0x80
 800304e:	05c0      	lsls	r0, r0, #23
 8003050:	f7fd fe5a 	bl	8000d08 <HAL_GPIO_WritePin>
						HAL_Delay(200);
 8003054:	20c8      	movs	r0, #200	; 0xc8
 8003056:	f7fd fcf5 	bl	8000a44 <HAL_Delay>
						HAL_GPIO_WritePin(SPI_B_CS_GPIO_Port, SPI_B_CS_Pin, GPIO_PIN_SET);
 800305a:	20a0      	movs	r0, #160	; 0xa0
 800305c:	2201      	movs	r2, #1
 800305e:	2180      	movs	r1, #128	; 0x80
 8003060:	05c0      	lsls	r0, r0, #23
 8003062:	f7fd fe51 	bl	8000d08 <HAL_GPIO_WritePin>
						HAL_Delay(250);
 8003066:	20fa      	movs	r0, #250	; 0xfa
 8003068:	f7fd fcec 	bl	8000a44 <HAL_Delay>
 800306c:	e705      	b.n	8002e7a <state_machine+0x186>
						HAL_GPIO_WritePin(SPI_A_CS_GPIO_Port, SPI_A_CS_Pin, GPIO_PIN_RESET);
 800306e:	20a0      	movs	r0, #160	; 0xa0
 8003070:	2200      	movs	r2, #0
 8003072:	2140      	movs	r1, #64	; 0x40
 8003074:	05c0      	lsls	r0, r0, #23
 8003076:	f7fd fe47 	bl	8000d08 <HAL_GPIO_WritePin>
						HAL_Delay(200);
 800307a:	20c8      	movs	r0, #200	; 0xc8
 800307c:	f7fd fce2 	bl	8000a44 <HAL_Delay>
						HAL_GPIO_WritePin(SPI_A_CS_GPIO_Port, SPI_A_CS_Pin, GPIO_PIN_SET);
 8003080:	20a0      	movs	r0, #160	; 0xa0
 8003082:	2201      	movs	r2, #1
 8003084:	2140      	movs	r1, #64	; 0x40
 8003086:	05c0      	lsls	r0, r0, #23
 8003088:	f7fd fe3e 	bl	8000d08 <HAL_GPIO_WritePin>
						HAL_Delay(250);
 800308c:	20fa      	movs	r0, #250	; 0xfa
 800308e:	f7fd fcd9 	bl	8000a44 <HAL_Delay>
 8003092:	e6ec      	b.n	8002e6e <state_machine+0x17a>
 8003094:	200000e4 	.word	0x200000e4
 8003098:	08003258 	.word	0x08003258
 800309c:	ffff7fff 	.word	0xffff7fff
 80030a0:	200000ec 	.word	0x200000ec
 80030a4:	50000800 	.word	0x50000800

080030a8 <__errno>:
 80030a8:	4b01      	ldr	r3, [pc, #4]	; (80030b0 <__errno+0x8>)
 80030aa:	6818      	ldr	r0, [r3, #0]
 80030ac:	4770      	bx	lr
 80030ae:	46c0      	nop			; (mov r8, r8)
 80030b0:	2000000c 	.word	0x2000000c

080030b4 <__libc_init_array>:
 80030b4:	b570      	push	{r4, r5, r6, lr}
 80030b6:	2600      	movs	r6, #0
 80030b8:	4d0c      	ldr	r5, [pc, #48]	; (80030ec <__libc_init_array+0x38>)
 80030ba:	4c0d      	ldr	r4, [pc, #52]	; (80030f0 <__libc_init_array+0x3c>)
 80030bc:	1b64      	subs	r4, r4, r5
 80030be:	10a4      	asrs	r4, r4, #2
 80030c0:	42a6      	cmp	r6, r4
 80030c2:	d109      	bne.n	80030d8 <__libc_init_array+0x24>
 80030c4:	2600      	movs	r6, #0
 80030c6:	f000 f8ad 	bl	8003224 <_init>
 80030ca:	4d0a      	ldr	r5, [pc, #40]	; (80030f4 <__libc_init_array+0x40>)
 80030cc:	4c0a      	ldr	r4, [pc, #40]	; (80030f8 <__libc_init_array+0x44>)
 80030ce:	1b64      	subs	r4, r4, r5
 80030d0:	10a4      	asrs	r4, r4, #2
 80030d2:	42a6      	cmp	r6, r4
 80030d4:	d105      	bne.n	80030e2 <__libc_init_array+0x2e>
 80030d6:	bd70      	pop	{r4, r5, r6, pc}
 80030d8:	00b3      	lsls	r3, r6, #2
 80030da:	58eb      	ldr	r3, [r5, r3]
 80030dc:	4798      	blx	r3
 80030de:	3601      	adds	r6, #1
 80030e0:	e7ee      	b.n	80030c0 <__libc_init_array+0xc>
 80030e2:	00b3      	lsls	r3, r6, #2
 80030e4:	58eb      	ldr	r3, [r5, r3]
 80030e6:	4798      	blx	r3
 80030e8:	3601      	adds	r6, #1
 80030ea:	e7f2      	b.n	80030d2 <__libc_init_array+0x1e>
 80030ec:	080033dc 	.word	0x080033dc
 80030f0:	080033dc 	.word	0x080033dc
 80030f4:	080033dc 	.word	0x080033dc
 80030f8:	080033e0 	.word	0x080033e0

080030fc <malloc>:
 80030fc:	b510      	push	{r4, lr}
 80030fe:	4b03      	ldr	r3, [pc, #12]	; (800310c <malloc+0x10>)
 8003100:	0001      	movs	r1, r0
 8003102:	6818      	ldr	r0, [r3, #0]
 8003104:	f000 f80c 	bl	8003120 <_malloc_r>
 8003108:	bd10      	pop	{r4, pc}
 800310a:	46c0      	nop			; (mov r8, r8)
 800310c:	2000000c 	.word	0x2000000c

08003110 <memset>:
 8003110:	0003      	movs	r3, r0
 8003112:	1882      	adds	r2, r0, r2
 8003114:	4293      	cmp	r3, r2
 8003116:	d100      	bne.n	800311a <memset+0xa>
 8003118:	4770      	bx	lr
 800311a:	7019      	strb	r1, [r3, #0]
 800311c:	3301      	adds	r3, #1
 800311e:	e7f9      	b.n	8003114 <memset+0x4>

08003120 <_malloc_r>:
 8003120:	b5f8      	push	{r3, r4, r5, r6, r7, lr}
 8003122:	2303      	movs	r3, #3
 8003124:	1ccd      	adds	r5, r1, #3
 8003126:	439d      	bics	r5, r3
 8003128:	3508      	adds	r5, #8
 800312a:	0006      	movs	r6, r0
 800312c:	2d0c      	cmp	r5, #12
 800312e:	d21f      	bcs.n	8003170 <_malloc_r+0x50>
 8003130:	250c      	movs	r5, #12
 8003132:	42a9      	cmp	r1, r5
 8003134:	d81e      	bhi.n	8003174 <_malloc_r+0x54>
 8003136:	0030      	movs	r0, r6
 8003138:	f000 f862 	bl	8003200 <__malloc_lock>
 800313c:	4925      	ldr	r1, [pc, #148]	; (80031d4 <_malloc_r+0xb4>)
 800313e:	680a      	ldr	r2, [r1, #0]
 8003140:	0014      	movs	r4, r2
 8003142:	2c00      	cmp	r4, #0
 8003144:	d11a      	bne.n	800317c <_malloc_r+0x5c>
 8003146:	4f24      	ldr	r7, [pc, #144]	; (80031d8 <_malloc_r+0xb8>)
 8003148:	683b      	ldr	r3, [r7, #0]
 800314a:	2b00      	cmp	r3, #0
 800314c:	d104      	bne.n	8003158 <_malloc_r+0x38>
 800314e:	0021      	movs	r1, r4
 8003150:	0030      	movs	r0, r6
 8003152:	f000 f843 	bl	80031dc <_sbrk_r>
 8003156:	6038      	str	r0, [r7, #0]
 8003158:	0029      	movs	r1, r5
 800315a:	0030      	movs	r0, r6
 800315c:	f000 f83e 	bl	80031dc <_sbrk_r>
 8003160:	1c43      	adds	r3, r0, #1
 8003162:	d12b      	bne.n	80031bc <_malloc_r+0x9c>
 8003164:	230c      	movs	r3, #12
 8003166:	0030      	movs	r0, r6
 8003168:	6033      	str	r3, [r6, #0]
 800316a:	f000 f851 	bl	8003210 <__malloc_unlock>
 800316e:	e003      	b.n	8003178 <_malloc_r+0x58>
 8003170:	2d00      	cmp	r5, #0
 8003172:	dade      	bge.n	8003132 <_malloc_r+0x12>
 8003174:	230c      	movs	r3, #12
 8003176:	6033      	str	r3, [r6, #0]
 8003178:	2000      	movs	r0, #0
 800317a:	bdf8      	pop	{r3, r4, r5, r6, r7, pc}
 800317c:	6823      	ldr	r3, [r4, #0]
 800317e:	1b5b      	subs	r3, r3, r5
 8003180:	d419      	bmi.n	80031b6 <_malloc_r+0x96>
 8003182:	2b0b      	cmp	r3, #11
 8003184:	d903      	bls.n	800318e <_malloc_r+0x6e>
 8003186:	6023      	str	r3, [r4, #0]
 8003188:	18e4      	adds	r4, r4, r3
 800318a:	6025      	str	r5, [r4, #0]
 800318c:	e003      	b.n	8003196 <_malloc_r+0x76>
 800318e:	6863      	ldr	r3, [r4, #4]
 8003190:	42a2      	cmp	r2, r4
 8003192:	d10e      	bne.n	80031b2 <_malloc_r+0x92>
 8003194:	600b      	str	r3, [r1, #0]
 8003196:	0030      	movs	r0, r6
 8003198:	f000 f83a 	bl	8003210 <__malloc_unlock>
 800319c:	0020      	movs	r0, r4
 800319e:	2207      	movs	r2, #7
 80031a0:	300b      	adds	r0, #11
 80031a2:	1d23      	adds	r3, r4, #4
 80031a4:	4390      	bics	r0, r2
 80031a6:	1ac2      	subs	r2, r0, r3
 80031a8:	4298      	cmp	r0, r3
 80031aa:	d0e6      	beq.n	800317a <_malloc_r+0x5a>
 80031ac:	1a1b      	subs	r3, r3, r0
 80031ae:	50a3      	str	r3, [r4, r2]
 80031b0:	e7e3      	b.n	800317a <_malloc_r+0x5a>
 80031b2:	6053      	str	r3, [r2, #4]
 80031b4:	e7ef      	b.n	8003196 <_malloc_r+0x76>
 80031b6:	0022      	movs	r2, r4
 80031b8:	6864      	ldr	r4, [r4, #4]
 80031ba:	e7c2      	b.n	8003142 <_malloc_r+0x22>
 80031bc:	2303      	movs	r3, #3
 80031be:	1cc4      	adds	r4, r0, #3
 80031c0:	439c      	bics	r4, r3
 80031c2:	42a0      	cmp	r0, r4
 80031c4:	d0e1      	beq.n	800318a <_malloc_r+0x6a>
 80031c6:	1a21      	subs	r1, r4, r0
 80031c8:	0030      	movs	r0, r6
 80031ca:	f000 f807 	bl	80031dc <_sbrk_r>
 80031ce:	1c43      	adds	r3, r0, #1
 80031d0:	d1db      	bne.n	800318a <_malloc_r+0x6a>
 80031d2:	e7c7      	b.n	8003164 <_malloc_r+0x44>
 80031d4:	20000090 	.word	0x20000090
 80031d8:	20000094 	.word	0x20000094

080031dc <_sbrk_r>:
 80031dc:	2300      	movs	r3, #0
 80031de:	b570      	push	{r4, r5, r6, lr}
 80031e0:	4d06      	ldr	r5, [pc, #24]	; (80031fc <_sbrk_r+0x20>)
 80031e2:	0004      	movs	r4, r0
 80031e4:	0008      	movs	r0, r1
 80031e6:	602b      	str	r3, [r5, #0]
 80031e8:	f7fd fb14 	bl	8000814 <_sbrk>
 80031ec:	1c43      	adds	r3, r0, #1
 80031ee:	d103      	bne.n	80031f8 <_sbrk_r+0x1c>
 80031f0:	682b      	ldr	r3, [r5, #0]
 80031f2:	2b00      	cmp	r3, #0
 80031f4:	d000      	beq.n	80031f8 <_sbrk_r+0x1c>
 80031f6:	6023      	str	r3, [r4, #0]
 80031f8:	bd70      	pop	{r4, r5, r6, pc}
 80031fa:	46c0      	nop			; (mov r8, r8)
 80031fc:	2000026c 	.word	0x2000026c

08003200 <__malloc_lock>:
 8003200:	b510      	push	{r4, lr}
 8003202:	4802      	ldr	r0, [pc, #8]	; (800320c <__malloc_lock+0xc>)
 8003204:	f000 f80c 	bl	8003220 <__retarget_lock_acquire_recursive>
 8003208:	bd10      	pop	{r4, pc}
 800320a:	46c0      	nop			; (mov r8, r8)
 800320c:	20000274 	.word	0x20000274

08003210 <__malloc_unlock>:
 8003210:	b510      	push	{r4, lr}
 8003212:	4802      	ldr	r0, [pc, #8]	; (800321c <__malloc_unlock+0xc>)
 8003214:	f000 f805 	bl	8003222 <__retarget_lock_release_recursive>
 8003218:	bd10      	pop	{r4, pc}
 800321a:	46c0      	nop			; (mov r8, r8)
 800321c:	20000274 	.word	0x20000274

08003220 <__retarget_lock_acquire_recursive>:
 8003220:	4770      	bx	lr

08003222 <__retarget_lock_release_recursive>:
 8003222:	4770      	bx	lr

08003224 <_init>:
 8003224:	b5f8      	push	{r3, r4, r5, r6, r7, lr}
 8003226:	46c0      	nop			; (mov r8, r8)
 8003228:	bcf8      	pop	{r3, r4, r5, r6, r7}
 800322a:	bc08      	pop	{r3}
 800322c:	469e      	mov	lr, r3
 800322e:	4770      	bx	lr

08003230 <_fini>:
 8003230:	b5f8      	push	{r3, r4, r5, r6, r7, lr}
 8003232:	46c0      	nop			; (mov r8, r8)
 8003234:	bcf8      	pop	{r3, r4, r5, r6, r7}
 8003236:	bc08      	pop	{r3}
 8003238:	469e      	mov	lr, r3
 800323a:	4770      	bx	lr
